
dist/Release/anyRTOS-sample.elf:     file format elf32-msp430

SYMBOL TABLE:
0000c000 l    d  .text	00000000 .text
0000e758 l    d  .rodata	00000000 .rodata
00000200 l    d  .data	00000000 .data
0000020e l    d  .bss	00000000 .bss
000003c8 l    d  .noinit	00000000 .noinit
0000ffe0 l    d  .vectors	00000000 .vectors
00000000 l    d  .debug_aranges	00000000 .debug_aranges
00000000 l    d  .debug_info	00000000 .debug_info
00000000 l    d  .debug_abbrev	00000000 .debug_abbrev
00000000 l    d  .debug_line	00000000 .debug_line
00000000 l    d  .debug_frame	00000000 .debug_frame
00000000 l    d  .debug_str	00000000 .debug_str
00000000 l    d  .debug_loc	00000000 .debug_loc
00000000 l    df *ABS*	00000000 main.c
00000280 l     O .bss	00000070 _th
0000ea10 l     O .rodata	00000030 _schInfo
000002f0 l     O .bss	00000028 _inter_stack
00000318 l     O .bss	00000032 _prompt_stack
0000034a l     O .bss	00000028 _rtcc_stack
00000372 l     O .bss	00000028 _switch_stack
0000c094 l       .text	00000000 __br_unexpected_
00000000 l    df *ABS*	00000000 queue.c
00000000 l    df *ABS*	00000000 anyRTOS.c
0000c246 l     F .text	0000007a _jump
0000022a l     O .bss	00000010 _ready
00000200 l     O .data	00000002 _running
0000c2c0 l     F .text	0000008e _resumeFullPriorList
0000020e l     O .bss	0000001c _background
00000000 l    df *ABS*	00000000 adc.c
0000023a l     O .bss	00000002 _endOfConversion
0000023c l     O .bss	00000004 _busy
0000ca5e l     F .text	00000020 _isr
00000000 l    df *ABS*	00000000 board-msp-exp430g2.c
00000240 l     O .bss	00000002 _switch
0000cafc l     F .text	00000026 _port1_isr
00000000 l    df *ABS*	00000000 serial-port.c
00000258 l     O .bss	00000004 _rxMem
00000242 l     O .bss	00000016 _rx
00000272 l     O .bss	00000004 _txMem
0000025c l     O .bss	00000016 _tx
0000cb72 l     F .text	00000056 _usciAB0_tx_isr
0000cbc8 l     F .text	00000026 _usciAB0_rx_isr
0000e77c l     O .rodata	00000008 denominators.1978
00000000 l    df *ABS*	00000000 timers.c
0000d162 l     F .text	00000022 _timerA0_isr
0000d184 l     F .text	00000022 _timerA1_isr
00000276 l     O .bss	00000001 _timer0_Qty
00000277 l     O .bss	00000001 _timer1_Qty
00000000 l    df *ABS*	00000000 date-time.c
0000e784 l     O .rodata	0000000d _daysInMonth
00000000 l    df *ABS*	00000000 intervalometer.c
0000e96a l     O .rodata	0000003c _speedNames
00000278 l     O .bss	00000001 _commandCode
0000027a l     O .bss	00000002 _th
0000027c l     O .bss	00000002 _commandEvent
00000202 l     O .data	00000002 _delay
00000204 l     O .data	00000002 _intv
00000206 l     O .data	00000002 _long
00000208 l     O .data	00000002 _numb
0000027e l     O .bss	00000001 _hdr
0000e9a6 l     O .rodata	0000003c _speeds
0000020a l     O .data	00000001 _step
0000ea06 l     O .rodata	0000000a _stepNames
00000000 l    df *ABS*	00000000 prompt.c
0000dbbe l     F .text	0000000a _clear_command
0000dbc8 l     F .text	0000001a _temp_command
0000dbe2 l     F .text	0000001e _switch_command
0000ee26 l     O .rodata	00000004 _funcNames
0000ee2a l     O .rodata	00000004 _funcPtr
0000dc00 l     F .text	00000028 _printAlarm_command
0000dc28 l     F .text	0000001e _alarm_command
0000dc46 l     F .text	00000222 _help_command
0000039a l     O .bss	0000000a str.2006
0000edac l     O .rodata	00000066 _commands
00000000 l    df *ABS*	00000000 rtcc.c
0000e04c l     F .text	000000f0 _enter
0000e13c l     F .text	00000074 _incHour
000003ae l     O .bss	00000008 _time
000003be l     O .bss	00000001 _weekDay
000003a4 l     O .bss	00000001 _go
000003a8 l     O .bss	00000002 _event
000003aa l     O .bss	00000004 _mutex
000003b6 l     O .bss	00000008 _alarm
000003bf l     O .bss	00000001 _season
000003a6 l     O .bss	00000002 _func
0000eee8 l     O .rodata	0000001a monthNames.1769
0000ef3c l     O .rodata	00000010 weekDaysNames.1780
0000ef60 l     O .rodata	00000006 seasonNames.1781
00000000 l    df *ABS*	00000000 switch.c
0000020c l     O .data	00000002 _func
00000000 l    df *ABS*	00000000 strcmp.c
00000000 l    df *ABS*	00000000 atoi.c
00000002 l       *ABS*	00000000 PUSH_BYTES
0000e702 g       .text	00000000 longjmp
00000057 g       *ABS*	00000000 __BCSCTL1
0000005a g       *ABS*	00000000 __CACTL2
0000000e g       *ABS*	00000000 __data_size
00000166 g       *ABS*	00000000 __TA0CCTL2
0000c094  w      .text	00000000 __isr_14
00000128 g       *ABS*	00000000 __FCTL1
0000d364 g     F .text	0000001c dateTime_setYear
00000192 g       *ABS*	00000000 __TA1CCR0
0000e6d0 g       .text	00000000 setjmp
0000d618 g     F .text	00000050 intervalometer_printSpeeds
00000042 g       *ABS*	00000000 __P2SEL2
0000c8be g     F .text	0000008a timer_delay
00000024 g       *ABS*	00000000 __P1IES
0000e3e2 g     F .text	00000044 rtcc_enterTime
00000069 g       *ABS*	00000000 __UCB0CTL1
0000e71c g       .text	00000000 __ext_divmod16
0000c5e0 g     F .text	0000004e event_notifyISR
0000c094  w      .text	00000000 __isr_4
00000002 g       *ABS*	00000000 __IFG1
0000c390 g     F .text	00000084 scheduler_add
00000060 g       *ABS*	00000000 __UCA0CTL0
0000c468 g     F .text	00000016 task_exitCritical
0000cca6 g     F .text	00000056 serial_x8
000003c0 g     O .bss	00000004 timer0
0000d2b8 g     F .text	000000ac dateTime_checkRanges
00000000 g       .vectors	00000000 _efartext
0000e5ba g     F .text	00000000 __udivhi3
00000176 g       *ABS*	00000000 __TA0CCR2
00000001 g       *ABS*	00000000 __IE2
0000e1fa g     F .text	00000006 rtcc_alarmOff
0000cada g     F .text	00000022 board_switch_waitToReleased
0000002b g       *ABS*	00000000 __P2IFG
0000001a g       *ABS*	00000000 __P3DIR
0000ef66 g       *ABS*	00000000 _etext
000010f8 g       *ABS*	00000000 __CALDCO_16MHZ
000001ba g       *ABS*	00000000 __bss_size
0000e1b0 g     F .text	00000044 rtcc_init
0000c4ea g     F .text	00000056 event_wait
0000d6ec g     F .text	0000004e interval_stop
000010fd g       *ABS*	00000000 __CALBC1_8MHZ
0000c000  w      .text	00000000 __watchdog_support
0000e426 g     F .text	0000013e rtcc_task
0000c08e  w      .text	00000000 __stop_progExec__
00000172 g       *ABS*	00000000 __TA0CCR0
0000002d g       *ABS*	00000000 __P2IE
0000c1ae g     F .text	00000042 queue_put8ISR
0000c948 g     F .text	000000c2 timer_abort
0000d248 g     F .text	00000046 timer_off
0000c094  w      .text	00000000 __isr_11
00000160 g       *ABS*	00000000 __TA0CTL
0000e5dc g     F .text	00000000 __udivsi3
00000025 g       *ABS*	00000000 __P1IE
0000006b g       *ABS*	00000000 __UCB0BR1
00000164 g       *ABS*	00000000 __TA0CCTL1
00000049 g       *ABS*	00000000 __ADC10DTC1
00000190 g       *ABS*	00000000 __TA1R
00000066 g       *ABS*	00000000 __UCA0RXBUF
00000061 g       *ABS*	00000000 __UCA0CTL1
00000170 g       *ABS*	00000000 __TA0R
0000c7c6 g     F .text	00000086 timer_shift
0000e1f4 g     F .text	00000006 rtcc_stop
0000c638 g     F .text	0000005e mutex_enterCritical
00000180 g       *ABS*	00000000 __TA1CTL
0000006d g       *ABS*	00000000 __UCB0STAT
0000ca5e g       .text	00000000 __isr_5
0000d47e g     F .text	00000114 dateTime_calcWeekDay
00000063 g       *ABS*	00000000 __UCA0BR1
0000c14c g     F .text	00000062 queue_get8
0000ef66 g       *ABS*	00000000 __data_load_start
0000c094 g       .text	00000000 __dtors_end
0000e224 g     F .text	000000d4 rtcc_printAlarm
00000053 g       *ABS*	00000000 __BCSCTL3
000001bc g       *ABS*	00000000 __ADC10SA
0000ca1c g     F .text	00000042 adc_get
00000065 g       *ABS*	00000000 __UCA0STAT
0000c4aa g     F .text	0000003a task_yieldISR
0000db4a g     F .text	00000074 interval_printSettings
0000cafc g       .text	00000000 __isr_2
0000e5a2 g       .text	00000000 __mulhi3
0000e74e g     F .text	00000000 __modhi3
0000012c g       *ABS*	00000000 __FCTL3
0000c094  w      .text	00000000 __isr_10
0000c696 g     F .text	0000001e mutex_exitCritical
0000002e g       *ABS*	00000000 __P2SEL
0000cf50 g     F .text	000000a2 serial_getNum
000010f9 g       *ABS*	00000000 __CALBC1_16MHZ
0000012e g       *ABS*	00000000 __TA0IV
00000023 g       *ABS*	00000000 __P1IFG
000010fb g       *ABS*	00000000 __CALBC1_12MHZ
00000182 g       *ABS*	00000000 __TA1CCTL0
0000004a g       *ABS*	00000000 __ADC10AE0
0000011a g       *ABS*	00000000 __UCB0I2CSA
00000056 g       *ABS*	00000000 __DCOCTL
00000003 g       *ABS*	00000000 __IFG2
000003c8 g     O .noinit	00000002 __wdt_clear_value
0000c74e g     F .text	0000000a timer_init
0000001b g       *ABS*	00000000 __P3SEL
0000cbc8 g       .text	00000000 __isr_7
0000ffe0 g     O .vectors	00000020 __ivtbl_16
0000006c g       *ABS*	00000000 __UCB0I2CIE
0000006a g       *ABS*	00000000 __UCB0BR0
0000e612 g     F .text	00000000 __umodsi3
00000028 g       *ABS*	00000000 __P2IN
0000d694 g     F .text	0000002c interval_run
00000118 g       *ABS*	00000000 __UCB0I2COA
000001b4 g       *ABS*	00000000 __ADC10MEM
0000005b g       *ABS*	00000000 __CAPD
0000e5d4 g     F .text	00000000 __umodhi3
0000c47e g     F .text	0000002c task_updateTick
0000d676 g     F .text	0000001e interval_init
0000c094  w      .text	00000000 __isr_0
0000c34e g     F .text	00000042 scheduler_init
00000029 g       *ABS*	00000000 __P2OUT
0000012a g       *ABS*	00000000 __FCTL2
00000064 g       *ABS*	00000000 __UCA0MCTL
00000043 g       *ABS*	00000000 __P3SEL2
0000c028  w      .text	00000000 __do_clear_bss
00000021 g       *ABS*	00000000 __P1OUT
0000002c g       *ABS*	00000000 __P2IES
00000026 g       *ABS*	00000000 __P1SEL
0000c724 g     F .text	0000002a mutex_exit
0000c414 g     F .text	00000046 scheduler_run
0000e5dc g       .text	00000000 __ext_udivmod32
0000c540 g     F .text	000000a0 event_notify
0000cbee g     F .text	0000001e serial_char
00000027 g       *ABS*	00000000 __P1REN
0000e756  w      .text	00000000 _unexpected_
0000c094  w      .text	00000000 __isr_8
0000011e g       *ABS*	00000000 __TA1IV
0000ce3a g     F .text	00000080 serial_u8
0000c094  w      .text	00000000 __isr_3
0000cc0c g     F .text	0000002a serial_endl
0000de68 g     F .text	000001e4 prompt_task
0000c1f0 g     F .text	00000056 queue_get8ThdISR
000010fc g       *ABS*	00000000 __CALDCO_8MHZ
0000c62e g     F .text	0000000a mutex_init
0000e71c g     F .text	00000000 __divhi3
0000e5ba g       .text	00000000 __ext_udivmod16
0000c000  w      .text	00000000 _reset_vector__
0000d1e4 g     F .text	00000064 timer_on
0000c094 g       .text	00000000 __ctors_start
0000ca7e g     F .text	0000003c board_init
0000c094  w      .text	00000000 __isr_12
000010fa g       *ABS*	00000000 __CALDCO_12MHZ
0000ceba g     F .text	00000096 serial_getStr
00000018 g       *ABS*	00000000 __P3IN
0000c010  w      .text	00000000 __do_copy_data
0000c4e4 g     F .text	00000006 event_init
0000d380 g     F .text	00000024 dateTime_getYear
00000162 g       *ABS*	00000000 __TA0CCTL0
0000c45a g     F .text	0000000e task_enterCritical
0000e2f8 g     F .text	000000ea rtcc_print
0000020e g       .bss	00000000 __bss_start
0000c03e g     F .text	00000050 main
0000d184 g       .text	00000000 __isr_13
00010000 g       .vectors	00000000 _vectors_end
0000e61c g     F .text	0000001e strcmp
0000cb22 g     F .text	00000050 serial_init
0000002a g       *ABS*	00000000 __P2DIR
0000e200 g     F .text	00000024 rtcc_enterAlarm
00000174 g       *ABS*	00000000 __TA0CCR1
0000da70 g     F .text	000000da interval_enterSettings
00000186 g       *ABS*	00000000 __TA1CCTL2
00000068 g       *ABS*	00000000 __UCB0CTL0
0000002f g       *ABS*	00000000 __P2REN
0000d28e g     F .text	0000002a dateTime_init
0000006e g       *ABS*	00000000 __UCB0RXBUF
000001b0 g       *ABS*	00000000 __ADC10CTL0
0000ca0a g     F .text	00000012 adc_init
0000d162 g       .text	00000000 __isr_9
0000005e g       *ABS*	00000000 __UCA0IRTCTL
000010fe g       *ABS*	00000000 __CALDCO_1MHZ
0000cc7c g     F .text	0000002a serial_msg
00000184 g       *ABS*	00000000 __TA1CCTL1
00000067 g       *ABS*	00000000 __UCA0TXBUF
0000c00c  w      .text	00000000 __init_stack
0000d73a g     F .text	00000336 intervalometer_task
0000005d g       *ABS*	00000000 __UCA0ABCTL
000003c4 g     O .bss	00000004 timer1
00000019 g       *ABS*	00000000 __P3OUT
0000ccfc g     F .text	00000092 serial_u16
00000196 g       *ABS*	00000000 __TA1CCR2
0000c0dc g     F .text	00000070 queue_put8
0000c094 g       .text	00000000 __dtors_start
0000cb72 g       .text	00000000 __isr_6
0000c094 g       .text	00000000 __ctors_end
00000194 g       *ABS*	00000000 __TA1CCR1
00000062 g       *ABS*	00000000 __UCA0BR0
00000400 g       *ABS*	00000000 __stack
0000c094  w      .text	00000000 __isr_1
0000020e g       .data	00000000 _edata
000003ca g       *ABS*	00000000 _end
0000c6b4 g     F .text	00000070 mutex_enter
00000048 g       *ABS*	00000000 __ADC10DTC0
000001b2 g       *ABS*	00000000 __ADC10CTL1
0000c758 g     F .text	0000006e timer_tick
0000caba g     F .text	00000020 board_switch_waitToPressed
0000d418 g     F .text	00000066 dateTime_daysInMonth
00000058 g       *ABS*	00000000 __BCSCTL2
0000c08e  w      .text	00000000 _endless_loop__
0000e63a g     F .text	0000008a atoi
00000041 g       *ABS*	00000000 __P1SEL2
00000022 g       *ABS*	00000000 __P1DIR
0000d3a4 g     F .text	00000074 dateTime_isLaterOrEqual
0000d668 g     F .text	0000000e intervalometer_isRunning
0000005f g       *ABS*	00000000 __UCA0IRRCTL
00000010 g       *ABS*	00000000 __P3REN
0000cd8e g     F .text	000000ac serial_s16
0000e564 g     F .text	00000006 switch_setFunc
0000006f g       *ABS*	00000000 __UCB0TXBUF
000010ff g       *ABS*	00000000 __CALBC1_1MHZ
0000c010  w      .text	00000000 __low_level_init
0000e6c4 g     F .text	00000000 div
0000cff2 g     F .text	00000170 serial_option
0000c84c g     F .text	00000072 timer_period
0000cc36 g     F .text	00000046 serial_line
00000200 g       .data	00000000 __data_start
0000d6c0 g     F .text	0000002c interval_hdr
00000120 g       *ABS*	00000000 __WDTCTL
00000000 g       *ABS*	00000000 __IE1
0000d592 g     F .text	00000086 dateTime_calcSeason
0000d1a6 g     F .text	0000003e timer_allInit
00000059 g       *ABS*	00000000 __CACTL1
00000020 g       *ABS*	00000000 __P1IN
0000c098 g     F .text	00000044 queue_init
0000e56a g     F .text	00000038 switch_task



Disassembly of section .text:

0000c000 <__watchdog_support>:
    c000:	55 42 20 01 	mov.b	&0x0120,r5	
    c004:	35 d0 08 5a 	bis	#23048,	r5	;#0x5a08
    c008:	82 45 c8 03 	mov	r5,	&0x03c8	

0000c00c <__init_stack>:
    c00c:	31 40 00 04 	mov	#1024,	r1	;#0x0400

0000c010 <__do_copy_data>:
    c010:	3f 40 0e 00 	mov	#14,	r15	;#0x000e
    c014:	0f 93       	tst	r15		
    c016:	08 24       	jz	$+18     	;abs 0xc028
    c018:	92 42 c8 03 	mov	&0x03c8,&0x0120	
    c01c:	20 01 
    c01e:	2f 83       	decd	r15		
    c020:	9f 4f 66 ef 	mov	-4250(r15),512(r15);0xef66(r15), 0x0200(r15)
    c024:	00 02 
    c026:	f8 23       	jnz	$-14     	;abs 0xc018

0000c028 <__do_clear_bss>:
    c028:	3f 40 ba 01 	mov	#442,	r15	;#0x01ba
    c02c:	0f 93       	tst	r15		
    c02e:	07 24       	jz	$+16     	;abs 0xc03e
    c030:	92 42 c8 03 	mov	&0x03c8,&0x0120	
    c034:	20 01 
    c036:	1f 83       	dec	r15		
    c038:	cf 43 0e 02 	mov.b	#0,	526(r15);r3 As==00, 0x020e(r15)
    c03c:	f9 23       	jnz	$-12     	;abs 0xc030

0000c03e <main>:
    c03e:	b0 12 7e ca 	call	#0xca7e	
    c042:	b0 12 4e c3 	call	#0xc34e	
    c046:	b0 12 a6 d1 	call	#0xd1a6	
    c04a:	b0 12 22 cb 	call	#0xcb22	
    c04e:	b0 12 0a ca 	call	#0xca0a	
    c052:	b0 12 b0 e1 	call	#0xe1b0	
    c056:	3f 40 80 02 	mov	#640,	r15	;#0x0280
    c05a:	b0 12 76 d6 	call	#0xd676	
    c05e:	3f 40 10 ea 	mov	#-5616,	r15	;#0xea10
    c062:	b0 12 90 c3 	call	#0xc390	
    c066:	3b 40 1c ea 	mov	#-5604,	r11	;#0xea1c
    c06a:	0f 4b       	mov	r11,	r15	
    c06c:	b0 12 90 c3 	call	#0xc390	
    c070:	0f 4b       	mov	r11,	r15	
    c072:	3f 50 0c 00 	add	#12,	r15	;#0x000c
    c076:	b0 12 90 c3 	call	#0xc390	
    c07a:	0f 4b       	mov	r11,	r15	
    c07c:	3f 50 18 00 	add	#24,	r15	;#0x0018
    c080:	b0 12 90 c3 	call	#0xc390	
    c084:	b0 12 14 c4 	call	#0xc414	
    c088:	32 d0 10 00 	bis	#16,	r2	;#0x0010
    c08c:	0f 43       	clr	r15		

0000c08e <__stop_progExec__>:
    c08e:	32 d0 f0 00 	bis	#240,	r2	;#0x00f0
    c092:	fd 3f       	jmp	$-4      	;abs 0xc08e

0000c094 <__ctors_end>:
    c094:	30 40 56 e7 	br	#0xe756	

0000c098 <queue_init>:
    c098:	0b 12       	push	r11		
    c09a:	0a 12       	push	r10		
    c09c:	09 12       	push	r9		
    c09e:	0b 4f       	mov	r15,	r11	
    c0a0:	0a 4e       	mov	r14,	r10	
    c0a2:	09 4d       	mov	r13,	r9	
    c0a4:	b0 12 e4 c4 	call	#0xc4e4	
    c0a8:	0f 4b       	mov	r11,	r15	
    c0aa:	2f 53       	incd	r15		
    c0ac:	b0 12 e4 c4 	call	#0xc4e4	
    c0b0:	0f 4b       	mov	r11,	r15	
    c0b2:	2f 52       	add	#4,	r15	;r2 As==10
    c0b4:	b0 12 2e c6 	call	#0xc62e	
    c0b8:	0f 4b       	mov	r11,	r15	
    c0ba:	3f 52       	add	#8,	r15	;r2 As==11
    c0bc:	b0 12 2e c6 	call	#0xc62e	
    c0c0:	8b 43 12 00 	mov	#0,	18(r11)	;r3 As==00, 0x0012(r11)
    c0c4:	8b 43 0e 00 	mov	#0,	14(r11)	;r3 As==00, 0x000e(r11)
    c0c8:	8b 43 0c 00 	mov	#0,	12(r11)	;r3 As==00, 0x000c(r11)
    c0cc:	8b 49 10 00 	mov	r9,	16(r11)	;0x0010(r11)
    c0d0:	8b 4a 14 00 	mov	r10,	20(r11)	;0x0014(r11)
    c0d4:	39 41       	pop	r9		
    c0d6:	3a 41       	pop	r10		
    c0d8:	3b 41       	pop	r11		
    c0da:	30 41       	ret			

0000c0dc <queue_put8>:
    c0dc:	0b 12       	push	r11		
    c0de:	0a 12       	push	r10		
    c0e0:	09 12       	push	r9		
    c0e2:	08 12       	push	r8		
    c0e4:	0b 4f       	mov	r15,	r11	
    c0e6:	49 4e       	mov.b	r14,	r9	
    c0e8:	0a 4f       	mov	r15,	r10	
    c0ea:	2a 52       	add	#4,	r10	;r2 As==10
    c0ec:	0f 4a       	mov	r10,	r15	
    c0ee:	b0 12 38 c6 	call	#0xc638	
    c0f2:	1f 4b 12 00 	mov	18(r11),r15	;0x0012(r11)
    c0f6:	1f 9b 10 00 	cmp	16(r11),r15	;0x0010(r11)
    c0fa:	1d 2c       	jc	$+60     	;abs 0xc136
    c0fc:	1d 4b 14 00 	mov	20(r11),r13	;0x0014(r11)
    c100:	1d 5b 0e 00 	add	14(r11),r13	;0x000e(r11)
    c104:	cd 49 00 00 	mov.b	r9,	0(r13)	;0x0000(r13)
    c108:	1e 4b 0e 00 	mov	14(r11),r14	;0x000e(r11)
    c10c:	1e 53       	inc	r14		
    c10e:	8b 4e 0e 00 	mov	r14,	14(r11)	;0x000e(r11)
    c112:	1e 9b 10 00 	cmp	16(r11),r14	;0x0010(r11)
    c116:	02 28       	jnc	$+6      	;abs 0xc11c
    c118:	8b 43 0e 00 	mov	#0,	14(r11)	;r3 As==00, 0x000e(r11)
    c11c:	9b 53 12 00 	inc	18(r11)	;0x0012(r11)
    c120:	0f 4b       	mov	r11,	r15	
    c122:	b0 12 40 c5 	call	#0xc540	
    c126:	0f 4a       	mov	r10,	r15	
    c128:	b0 12 96 c6 	call	#0xc696	
    c12c:	38 41       	pop	r8		
    c12e:	39 41       	pop	r9		
    c130:	3a 41       	pop	r10		
    c132:	3b 41       	pop	r11		
    c134:	30 41       	ret			
    c136:	08 4b       	mov	r11,	r8	
    c138:	28 53       	incd	r8		
    c13a:	0f 48       	mov	r8,	r15	
    c13c:	b0 12 ea c4 	call	#0xc4ea	
    c140:	1d 4b 12 00 	mov	18(r11),r13	;0x0012(r11)
    c144:	1d 9b 10 00 	cmp	16(r11),r13	;0x0010(r11)
    c148:	d9 2b       	jnc	$-76     	;abs 0xc0fc
    c14a:	f7 3f       	jmp	$-16     	;abs 0xc13a

0000c14c <queue_get8>:
    c14c:	0b 12       	push	r11		
    c14e:	0a 12       	push	r10		
    c150:	09 12       	push	r9		
    c152:	0b 4f       	mov	r15,	r11	
    c154:	09 4f       	mov	r15,	r9	
    c156:	39 52       	add	#8,	r9	;r2 As==11
    c158:	0f 49       	mov	r9,	r15	
    c15a:	b0 12 38 c6 	call	#0xc638	
    c15e:	1f 4b 12 00 	mov	18(r11),r15	;0x0012(r11)
    c162:	0f 93       	tst	r15		
    c164:	1c 24       	jz	$+58     	;abs 0xc19e
    c166:	1e 4b 0c 00 	mov	12(r11),r14	;0x000c(r11)
    c16a:	1d 4b 14 00 	mov	20(r11),r13	;0x0014(r11)
    c16e:	0d 5e       	add	r14,	r13	
    c170:	6a 4d       	mov.b	@r13,	r10	
    c172:	1e 53       	inc	r14		
    c174:	8b 4e 0c 00 	mov	r14,	12(r11)	;0x000c(r11)
    c178:	1e 9b 10 00 	cmp	16(r11),r14	;0x0010(r11)
    c17c:	02 28       	jnc	$+6      	;abs 0xc182
    c17e:	8b 43 0c 00 	mov	#0,	12(r11)	;r3 As==00, 0x000c(r11)
    c182:	bb 53 12 00 	add	#-1,	18(r11)	;r3 As==11, 0x0012(r11)
    c186:	0f 4b       	mov	r11,	r15	
    c188:	2f 53       	incd	r15		
    c18a:	b0 12 40 c5 	call	#0xc540	
    c18e:	0f 49       	mov	r9,	r15	
    c190:	b0 12 96 c6 	call	#0xc696	
    c194:	4f 4a       	mov.b	r10,	r15	
    c196:	39 41       	pop	r9		
    c198:	3a 41       	pop	r10		
    c19a:	3b 41       	pop	r11		
    c19c:	30 41       	ret			
    c19e:	0f 4b       	mov	r11,	r15	
    c1a0:	b0 12 ea c4 	call	#0xc4ea	
    c1a4:	1f 4b 12 00 	mov	18(r11),r15	;0x0012(r11)
    c1a8:	0f 93       	tst	r15		
    c1aa:	dd 23       	jnz	$-68     	;abs 0xc166
    c1ac:	f8 3f       	jmp	$-14     	;abs 0xc19e

0000c1ae <queue_put8ISR>:
    c1ae:	1d 4f 12 00 	mov	18(r15),r13	;0x0012(r15)
    c1b2:	1d 9f 10 00 	cmp	16(r15),r13	;0x0010(r15)
    c1b6:	1a 2c       	jc	$+54     	;abs 0xc1ec
    c1b8:	1d 4f 14 00 	mov	20(r15),r13	;0x0014(r15)
    c1bc:	1d 5f 0e 00 	add	14(r15),r13	;0x000e(r15)
    c1c0:	cd 4e 00 00 	mov.b	r14,	0(r13)	;0x0000(r13)
    c1c4:	1e 4f 0e 00 	mov	14(r15),r14	;0x000e(r15)
    c1c8:	1e 53       	inc	r14		
    c1ca:	8f 4e 0e 00 	mov	r14,	14(r15)	;0x000e(r15)
    c1ce:	1e 9f 10 00 	cmp	16(r15),r14	;0x0010(r15)
    c1d2:	02 28       	jnc	$+6      	;abs 0xc1d8
    c1d4:	8f 43 0e 00 	mov	#0,	14(r15)	;r3 As==00, 0x000e(r15)
    c1d8:	9f 53 12 00 	inc	18(r15)	;0x0012(r15)
    c1dc:	b0 12 e0 c5 	call	#0xc5e0	
    c1e0:	4f 93       	tst.b	r15		
    c1e2:	02 20       	jnz	$+6      	;abs 0xc1e8
    c1e4:	2f 43       	mov	#2,	r15	;r3 As==10
    c1e6:	30 41       	ret			
    c1e8:	1f 43       	mov	#1,	r15	;r3 As==01
    c1ea:	30 41       	ret			
    c1ec:	0f 43       	clr	r15		
    c1ee:	30 41       	ret			

0000c1f0 <queue_get8ThdISR>:
    c1f0:	1c 4f 12 00 	mov	18(r15),r12	;0x0012(r15)
    c1f4:	0c 93       	tst	r12		
    c1f6:	25 24       	jz	$+76     	;abs 0xc242
    c1f8:	1c 4f 14 00 	mov	20(r15),r12	;0x0014(r15)
    c1fc:	1c 5f 0c 00 	add	12(r15),r12	;0x000c(r15)
    c200:	ee 4c 00 00 	mov.b	@r12,	0(r14)	;0x0000(r14)
    c204:	1e 4f 0c 00 	mov	12(r15),r14	;0x000c(r15)
    c208:	1e 53       	inc	r14		
    c20a:	8f 4e 0c 00 	mov	r14,	12(r15)	;0x000c(r15)
    c20e:	1e 9f 10 00 	cmp	16(r15),r14	;0x0010(r15)
    c212:	08 2c       	jc	$+18     	;abs 0xc224
    c214:	bf 53 12 00 	add	#-1,	18(r15)	;r3 As==11, 0x0012(r15)
    c218:	1e 4f 12 00 	mov	18(r15),r14	;0x0012(r15)
    c21c:	0d 9e       	cmp	r14,	r13	
    c21e:	0a 2c       	jc	$+22     	;abs 0xc234
    c220:	2f 43       	mov	#2,	r15	;r3 As==10
    c222:	30 41       	ret			
    c224:	8f 43 0c 00 	mov	#0,	12(r15)	;r3 As==00, 0x000c(r15)
    c228:	bf 53 12 00 	add	#-1,	18(r15)	;r3 As==11, 0x0012(r15)
    c22c:	1e 4f 12 00 	mov	18(r15),r14	;0x0012(r15)
    c230:	0d 9e       	cmp	r14,	r13	
    c232:	f6 2b       	jnc	$-18     	;abs 0xc220
    c234:	2f 53       	incd	r15		
    c236:	b0 12 e0 c5 	call	#0xc5e0	
    c23a:	4f 93       	tst.b	r15		
    c23c:	f1 27       	jz	$-28     	;abs 0xc220
    c23e:	1f 43       	mov	#1,	r15	;r3 As==01
    c240:	30 41       	ret			
    c242:	0f 43       	clr	r15		
    c244:	30 41       	ret			

0000c246 <_jump>:
    c246:	21 83       	decd	r1		
    c248:	3f 40 2a 02 	mov	#554,	r15	;#0x022a
    c24c:	a1 4f 00 00 	mov	@r15,	0(r1)	;0x0000(r1)
    c250:	81 93 00 00 	tst	0(r1)		;0x0000(r1)
    c254:	15 24       	jz	$+44     	;abs 0xc280
    c256:	91 9f 02 00 	cmp	2(r15),	0(r1)	;0x0002(r15), 0x0000(r1)
    c25a:	00 00 
    c25c:	0c 24       	jz	$+26     	;abs 0xc276
    c25e:	2e 41       	mov	@r1,	r14	
    c260:	af 4e 00 00 	mov	@r14,	0(r15)	;0x0000(r15)
    c264:	1f 42 00 02 	mov	&0x0200,r15	
    c268:	2f 52       	add	#4,	r15	;r2 As==10
    c26a:	b0 12 d0 e6 	call	#0xe6d0	
    c26e:	0f 93       	tst	r15		
    c270:	1f 24       	jz	$+64     	;abs 0xc2b0
    c272:	21 53       	incd	r1		
    c274:	30 41       	ret			
    c276:	8f 43 02 00 	mov	#0,	2(r15)	;r3 As==00, 0x0002(r15)
    c27a:	8f 43 00 00 	mov	#0,	0(r15)	;r3 As==00, 0x0000(r15)
    c27e:	f2 3f       	jmp	$-26     	;abs 0xc264
    c280:	0e 4f       	mov	r15,	r14	
    c282:	2e 52       	add	#4,	r14	;r2 As==10
    c284:	a1 4e 00 00 	mov	@r14,	0(r1)	;0x0000(r1)
    c288:	81 93 00 00 	tst	0(r1)		;0x0000(r1)
    c28c:	02 24       	jz	$+6      	;abs 0xc292
    c28e:	0f 4e       	mov	r14,	r15	
    c290:	e2 3f       	jmp	$-58     	;abs 0xc256
    c292:	0e 4f       	mov	r15,	r14	
    c294:	3e 52       	add	#8,	r14	;r2 As==11
    c296:	a1 4e 00 00 	mov	@r14,	0(r1)	;0x0000(r1)
    c29a:	81 93 00 00 	tst	0(r1)		;0x0000(r1)
    c29e:	f7 23       	jnz	$-16     	;abs 0xc28e
    c2a0:	3f 50 0c 00 	add	#12,	r15	;#0x000c
    c2a4:	a1 4f 00 00 	mov	@r15,	0(r1)	;0x0000(r1)
    c2a8:	81 93 00 00 	tst	0(r1)		;0x0000(r1)
    c2ac:	d4 23       	jnz	$-86     	;abs 0xc256
    c2ae:	da 3f       	jmp	$-74     	;abs 0xc264
    c2b0:	a2 41 00 02 	mov	@r1,	&0x0200	
    c2b4:	1f 42 00 02 	mov	&0x0200,r15	
    c2b8:	1e 43       	mov	#1,	r14	;r3 As==01
    c2ba:	2f 52       	add	#4,	r15	;r2 As==10
    c2bc:	b0 12 02 e7 	call	#0xe702	

0000c2c0 <_resumeFullPriorList>:
    c2c0:	0b 12       	push	r11		
    c2c2:	2d 4f       	mov	@r15,	r13	
    c2c4:	0d 93       	tst	r13		
    c2c6:	1d 24       	jz	$+60     	;abs 0xc302
    c2c8:	5b 4d 1b 00 	mov.b	27(r13),r11	;0x001b(r13)
    c2cc:	af 4d 00 00 	mov	@r13,	0(r15)	;0x0000(r15)
    c2d0:	5e 4d 1b 00 	mov.b	27(r13),r14	;0x001b(r13)
    c2d4:	0e 5e       	rla	r14		
    c2d6:	0e 5e       	rla	r14		
    c2d8:	3e 50 2a 02 	add	#554,	r14	;#0x022a
    c2dc:	8d 43 00 00 	mov	#0,	0(r13)	;r3 As==00, 0x0000(r13)
    c2e0:	8e 93 00 00 	tst	0(r14)		;0x0000(r14)
    c2e4:	10 24       	jz	$+34     	;abs 0xc306
    c2e6:	1c 4e 02 00 	mov	2(r14),	r12	;0x0002(r14)
    c2ea:	8c 4d 00 00 	mov	r13,	0(r12)	;0x0000(r12)
    c2ee:	8e 4d 02 00 	mov	r13,	2(r14)	;0x0002(r14)
    c2f2:	2d 4f       	mov	@r15,	r13	
    c2f4:	0d 93       	tst	r13		
    c2f6:	ea 23       	jnz	$-42     	;abs 0xc2cc
    c2f8:	1f 42 00 02 	mov	&0x0200,r15	
    c2fc:	5b 9f 1b 00 	cmp.b	27(r15),r11	;0x001b(r15)
    c300:	07 28       	jnc	$+16     	;abs 0xc310
    c302:	3b 41       	pop	r11		
    c304:	30 41       	ret			
    c306:	8e 4d 02 00 	mov	r13,	2(r14)	;0x0002(r14)
    c30a:	8e 4d 00 00 	mov	r13,	0(r14)	;0x0000(r14)
    c30e:	f1 3f       	jmp	$-28     	;abs 0xc2f2
    c310:	1e 42 00 02 	mov	&0x0200,r14	
    c314:	5f 4e 1b 00 	mov.b	27(r14),r15	;0x001b(r14)
    c318:	0f 5f       	rla	r15		
    c31a:	0f 5f       	rla	r15		
    c31c:	3f 50 2a 02 	add	#554,	r15	;#0x022a
    c320:	8e 43 00 00 	mov	#0,	0(r14)	;r3 As==00, 0x0000(r14)
    c324:	8f 93 00 00 	tst	0(r15)		;0x0000(r15)
    c328:	0d 24       	jz	$+28     	;abs 0xc344
    c32a:	1d 4f 02 00 	mov	2(r15),	r13	;0x0002(r15)
    c32e:	8d 4e 00 00 	mov	r14,	0(r13)	;0x0000(r13)
    c332:	8f 4e 02 00 	mov	r14,	2(r15)	;0x0002(r15)
    c336:	b0 12 46 c2 	call	#0xc246	
    c33a:	32 d2       	eint			
    c33c:	32 c2       	dint			
    c33e:	03 43       	nop			
    c340:	3b 41       	pop	r11		
    c342:	30 41       	ret			
    c344:	8f 4e 02 00 	mov	r14,	2(r15)	;0x0002(r15)
    c348:	8f 4e 00 00 	mov	r14,	0(r15)	;0x0000(r15)
    c34c:	f4 3f       	jmp	$-22     	;abs 0xc336

0000c34e <scheduler_init>:
    c34e:	32 c2       	dint			
    c350:	03 43       	nop			
    c352:	b2 40 0e 02 	mov	#526,	&0x0200	;#0x020e
    c356:	00 02 
    c358:	1f 42 00 02 	mov	&0x0200,r15	
    c35c:	ff 40 03 00 	mov.b	#3,	27(r15)	;#0x0003, 0x001b(r15)
    c360:	1b 00 
    c362:	1f 42 00 02 	mov	&0x0200,r15	
    c366:	df 43 1a 00 	mov.b	#1,	26(r15)	;r3 As==01, 0x001a(r15)
    c36a:	82 43 2c 02 	mov	#0,	&0x022c	;r3 As==00
    c36e:	3f 40 2a 02 	mov	#554,	r15	;#0x022a
    c372:	8f 43 00 00 	mov	#0,	0(r15)	;r3 As==00, 0x0000(r15)
    c376:	8f 43 06 00 	mov	#0,	6(r15)	;r3 As==00, 0x0006(r15)
    c37a:	8f 43 04 00 	mov	#0,	4(r15)	;r3 As==00, 0x0004(r15)
    c37e:	8f 43 0a 00 	mov	#0,	10(r15)	;r3 As==00, 0x000a(r15)
    c382:	8f 43 08 00 	mov	#0,	8(r15)	;r3 As==00, 0x0008(r15)
    c386:	8f 43 0e 00 	mov	#0,	14(r15)	;r3 As==00, 0x000e(r15)
    c38a:	8f 43 0c 00 	mov	#0,	12(r15)	;r3 As==00, 0x000c(r15)
    c38e:	30 41       	ret			

0000c390 <scheduler_add>:
    c390:	21 83       	decd	r1		
    c392:	81 4f 00 00 	mov	r15,	0(r1)	;0x0000(r1)
    c396:	2f 4f       	mov	@r15,	r15	
    c398:	2f 52       	add	#4,	r15	;r2 As==10
    c39a:	b0 12 d0 e6 	call	#0xe6d0	
    c39e:	0f 93       	tst	r15		
    c3a0:	03 24       	jz	$+8      	;abs 0xc3a8
    c3a2:	0f 4a       	mov	r10,	r15	
    c3a4:	00 4b       	br	r11		
    c3a6:	ff 3f       	jmp	$+0      	;abs 0xc3a6
    c3a8:	2e 41       	mov	@r1,	r14	
    c3aa:	2f 4e       	mov	@r14,	r15	
    c3ac:	9f 4e 04 00 	mov	4(r14),	20(r15)	;0x0004(r14), 0x0014(r15)
    c3b0:	14 00 
    c3b2:	9f 4e 02 00 	mov	2(r14),	22(r15)	;0x0002(r14), 0x0016(r15)
    c3b6:	16 00 
    c3b8:	bf 42 06 00 	mov	#8,	6(r15)	;r2 As==11, 0x0006(r15)
    c3bc:	0d 4e       	mov	r14,	r13	
    c3be:	1e 4e 08 00 	mov	8(r14),	r14	;0x0008(r14)
    c3c2:	3e f0 fe ff 	and	#-2,	r14	;#0xfffe
    c3c6:	1e 5d 06 00 	add	6(r13),	r14	;0x0006(r13)
    c3ca:	8f 4e 04 00 	mov	r14,	4(r15)	;0x0004(r15)
    c3ce:	df 4d 0a 00 	mov.b	10(r13),27(r15)	;0x000a(r13), 0x001b(r15)
    c3d2:	1b 00 
    c3d4:	8f 43 02 00 	mov	#0,	2(r15)	;r3 As==00, 0x0002(r15)
    c3d8:	cf 43 1a 00 	mov.b	#0,	26(r15)	;r3 As==00, 0x001a(r15)
    c3dc:	8f 43 00 00 	mov	#0,	0(r15)	;r3 As==00, 0x0000(r15)
    c3e0:	2e 4d       	mov	@r13,	r14	
    c3e2:	5f 4e 1b 00 	mov.b	27(r14),r15	;0x001b(r14)
    c3e6:	0f 5f       	rla	r15		
    c3e8:	0f 5f       	rla	r15		
    c3ea:	3f 50 2a 02 	add	#554,	r15	;#0x022a
    c3ee:	8e 43 00 00 	mov	#0,	0(r14)	;r3 As==00, 0x0000(r14)
    c3f2:	8f 93 00 00 	tst	0(r15)		;0x0000(r15)
    c3f6:	08 24       	jz	$+18     	;abs 0xc408
    c3f8:	1d 4f 02 00 	mov	2(r15),	r13	;0x0002(r15)
    c3fc:	8d 4e 00 00 	mov	r14,	0(r13)	;0x0000(r13)
    c400:	8f 4e 02 00 	mov	r14,	2(r15)	;0x0002(r15)
    c404:	21 53       	incd	r1		
    c406:	30 41       	ret			
    c408:	8f 4e 02 00 	mov	r14,	2(r15)	;0x0002(r15)
    c40c:	8f 4e 00 00 	mov	r14,	0(r15)	;0x0000(r15)
    c410:	21 53       	incd	r1		
    c412:	30 41       	ret			

0000c414 <scheduler_run>:
    c414:	1e 42 00 02 	mov	&0x0200,r14	
    c418:	5f 4e 1b 00 	mov.b	27(r14),r15	;0x001b(r14)
    c41c:	0f 5f       	rla	r15		
    c41e:	0f 5f       	rla	r15		
    c420:	3f 50 2a 02 	add	#554,	r15	;#0x022a
    c424:	8e 43 00 00 	mov	#0,	0(r14)	;r3 As==00, 0x0000(r14)
    c428:	8f 93 00 00 	tst	0(r15)		;0x0000(r15)
    c42c:	11 24       	jz	$+36     	;abs 0xc450
    c42e:	1d 4f 02 00 	mov	2(r15),	r13	;0x0002(r15)
    c432:	8d 4e 00 00 	mov	r14,	0(r13)	;0x0000(r13)
    c436:	8f 4e 02 00 	mov	r14,	2(r15)	;0x0002(r15)
    c43a:	b0 12 46 c2 	call	#0xc246	
    c43e:	32 d2       	eint			
    c440:	32 c2       	dint			
    c442:	03 43       	nop			
    c444:	1f 42 00 02 	mov	&0x0200,r15	
    c448:	cf 43 1a 00 	mov.b	#0,	26(r15)	;r3 As==00, 0x001a(r15)
    c44c:	32 d2       	eint			
    c44e:	30 41       	ret			
    c450:	8f 4e 02 00 	mov	r14,	2(r15)	;0x0002(r15)
    c454:	8f 4e 00 00 	mov	r14,	0(r15)	;0x0000(r15)
    c458:	f0 3f       	jmp	$-30     	;abs 0xc43a

0000c45a <task_enterCritical>:
    c45a:	32 c2       	dint			
    c45c:	03 43       	nop			
    c45e:	1f 42 00 02 	mov	&0x0200,r15	
    c462:	df 53 1a 00 	inc.b	26(r15)	;0x001a(r15)
    c466:	30 41       	ret			

0000c468 <task_exitCritical>:
    c468:	1f 42 00 02 	mov	&0x0200,r15	
    c46c:	5e 4f 1a 00 	mov.b	26(r15),r14	;0x001a(r15)
    c470:	7e 53       	add.b	#-1,	r14	;r3 As==11
    c472:	cf 4e 1a 00 	mov.b	r14,	26(r15)	;0x001a(r15)
    c476:	01 24       	jz	$+4      	;abs 0xc47a
    c478:	30 41       	ret			
    c47a:	32 d2       	eint			
    c47c:	30 41       	ret			

0000c47e <task_updateTick>:
    c47e:	32 c2       	dint			
    c480:	03 43       	nop			
    c482:	1e 42 00 02 	mov	&0x0200,r14	
    c486:	de 53 1a 00 	inc.b	26(r14)	;0x001a(r14)
    c48a:	1e 42 00 02 	mov	&0x0200,r14	
    c48e:	9e 4f 02 00 	mov	2(r15),	2(r14)	;0x0002(r15), 0x0002(r14)
    c492:	02 00 
    c494:	1f 42 00 02 	mov	&0x0200,r15	
    c498:	5e 4f 1a 00 	mov.b	26(r15),r14	;0x001a(r15)
    c49c:	7e 53       	add.b	#-1,	r14	;r3 As==11
    c49e:	cf 4e 1a 00 	mov.b	r14,	26(r15)	;0x001a(r15)
    c4a2:	01 24       	jz	$+4      	;abs 0xc4a6
    c4a4:	30 41       	ret			
    c4a6:	32 d2       	eint			
    c4a8:	30 41       	ret			

0000c4aa <task_yieldISR>:
    c4aa:	1e 42 00 02 	mov	&0x0200,r14	
    c4ae:	5f 4e 1b 00 	mov.b	27(r14),r15	;0x001b(r14)
    c4b2:	0f 5f       	rla	r15		
    c4b4:	0f 5f       	rla	r15		
    c4b6:	3f 50 2a 02 	add	#554,	r15	;#0x022a
    c4ba:	8e 43 00 00 	mov	#0,	0(r14)	;r3 As==00, 0x0000(r14)
    c4be:	8f 93 00 00 	tst	0(r15)		;0x0000(r15)
    c4c2:	09 24       	jz	$+20     	;abs 0xc4d6
    c4c4:	1d 4f 02 00 	mov	2(r15),	r13	;0x0002(r15)
    c4c8:	8d 4e 00 00 	mov	r14,	0(r13)	;0x0000(r13)
    c4cc:	8f 4e 02 00 	mov	r14,	2(r15)	;0x0002(r15)
    c4d0:	b0 12 46 c2 	call	#0xc246	
    c4d4:	30 41       	ret			
    c4d6:	8f 4e 02 00 	mov	r14,	2(r15)	;0x0002(r15)
    c4da:	8f 4e 00 00 	mov	r14,	0(r15)	;0x0000(r15)
    c4de:	b0 12 46 c2 	call	#0xc246	
    c4e2:	30 41       	ret			

0000c4e4 <event_init>:
    c4e4:	8f 43 00 00 	mov	#0,	0(r15)	;r3 As==00, 0x0000(r15)
    c4e8:	30 41       	ret			

0000c4ea <event_wait>:
    c4ea:	32 c2       	dint			
    c4ec:	03 43       	nop			
    c4ee:	1e 42 00 02 	mov	&0x0200,r14	
    c4f2:	de 53 1a 00 	inc.b	26(r14)	;0x001a(r14)
    c4f6:	1d 42 00 02 	mov	&0x0200,r13	
    c4fa:	2e 4f       	mov	@r15,	r14	
    c4fc:	0e 93       	tst	r14		
    c4fe:	06 20       	jnz	$+14     	;abs 0xc50c
    c500:	1c 3c       	jmp	$+58     	;abs 0xc53a
    c502:	df 9d 1b 00 	cmp.b	27(r13),27(r15)	;0x001b(r13), 0x001b(r15)
    c506:	1b 00 
    c508:	04 2c       	jc	$+10     	;abs 0xc512
    c50a:	0e 4f       	mov	r15,	r14	
    c50c:	2f 4e       	mov	@r14,	r15	
    c50e:	0f 93       	tst	r15		
    c510:	f8 23       	jnz	$-14     	;abs 0xc502
    c512:	8d 4f 00 00 	mov	r15,	0(r13)	;0x0000(r13)
    c516:	8e 4d 00 00 	mov	r13,	0(r14)	;0x0000(r14)
    c51a:	b0 12 46 c2 	call	#0xc246	
    c51e:	32 d2       	eint			
    c520:	32 c2       	dint			
    c522:	03 43       	nop			
    c524:	1f 42 00 02 	mov	&0x0200,r15	
    c528:	5e 4f 1a 00 	mov.b	26(r15),r14	;0x001a(r15)
    c52c:	7e 53       	add.b	#-1,	r14	;r3 As==11
    c52e:	cf 4e 1a 00 	mov.b	r14,	26(r15)	;0x001a(r15)
    c532:	01 24       	jz	$+4      	;abs 0xc536
    c534:	30 41       	ret			
    c536:	32 d2       	eint			
    c538:	30 41       	ret			
    c53a:	8f 4d 00 00 	mov	r13,	0(r15)	;0x0000(r15)
    c53e:	ed 3f       	jmp	$-36     	;abs 0xc51a

0000c540 <event_notify>:
    c540:	32 c2       	dint			
    c542:	03 43       	nop			
    c544:	1e 42 00 02 	mov	&0x0200,r14	
    c548:	de 53 1a 00 	inc.b	26(r14)	;0x001a(r14)
    c54c:	2e 4f       	mov	@r15,	r14	
    c54e:	0e 93       	tst	r14		
    c550:	19 24       	jz	$+52     	;abs 0xc584
    c552:	af 4e 00 00 	mov	@r14,	0(r15)	;0x0000(r15)
    c556:	5f 4e 1b 00 	mov.b	27(r14),r15	;0x001b(r14)
    c55a:	0f 5f       	rla	r15		
    c55c:	0f 5f       	rla	r15		
    c55e:	3f 50 2a 02 	add	#554,	r15	;#0x022a
    c562:	8e 43 00 00 	mov	#0,	0(r14)	;r3 As==00, 0x0000(r14)
    c566:	8f 93 00 00 	tst	0(r15)		;0x0000(r15)
    c56a:	30 24       	jz	$+98     	;abs 0xc5cc
    c56c:	1d 4f 02 00 	mov	2(r15),	r13	;0x0002(r15)
    c570:	8d 4e 00 00 	mov	r14,	0(r13)	;0x0000(r13)
    c574:	8f 4e 02 00 	mov	r14,	2(r15)	;0x0002(r15)
    c578:	1f 42 00 02 	mov	&0x0200,r15	
    c57c:	de 9f 1b 00 	cmp.b	27(r15),27(r14)	;0x001b(r15), 0x001b(r14)
    c580:	1b 00 
    c582:	0b 28       	jnc	$+24     	;abs 0xc59a
    c584:	1f 42 00 02 	mov	&0x0200,r15	
    c588:	5e 4f 1a 00 	mov.b	26(r15),r14	;0x001a(r15)
    c58c:	7e 53       	add.b	#-1,	r14	;r3 As==11
    c58e:	cf 4e 1a 00 	mov.b	r14,	26(r15)	;0x001a(r15)
    c592:	01 24       	jz	$+4      	;abs 0xc596
    c594:	30 41       	ret			
    c596:	32 d2       	eint			
    c598:	30 41       	ret			
    c59a:	1e 42 00 02 	mov	&0x0200,r14	
    c59e:	5f 4e 1b 00 	mov.b	27(r14),r15	;0x001b(r14)
    c5a2:	0f 5f       	rla	r15		
    c5a4:	0f 5f       	rla	r15		
    c5a6:	3f 50 2a 02 	add	#554,	r15	;#0x022a
    c5aa:	8e 43 00 00 	mov	#0,	0(r14)	;r3 As==00, 0x0000(r14)
    c5ae:	8f 93 00 00 	tst	0(r15)		;0x0000(r15)
    c5b2:	11 24       	jz	$+36     	;abs 0xc5d6
    c5b4:	1d 4f 02 00 	mov	2(r15),	r13	;0x0002(r15)
    c5b8:	8d 4e 00 00 	mov	r14,	0(r13)	;0x0000(r13)
    c5bc:	8f 4e 02 00 	mov	r14,	2(r15)	;0x0002(r15)
    c5c0:	b0 12 46 c2 	call	#0xc246	
    c5c4:	32 d2       	eint			
    c5c6:	32 c2       	dint			
    c5c8:	03 43       	nop			
    c5ca:	dc 3f       	jmp	$-70     	;abs 0xc584
    c5cc:	8f 4e 02 00 	mov	r14,	2(r15)	;0x0002(r15)
    c5d0:	8f 4e 00 00 	mov	r14,	0(r15)	;0x0000(r15)
    c5d4:	d1 3f       	jmp	$-92     	;abs 0xc578
    c5d6:	8f 4e 02 00 	mov	r14,	2(r15)	;0x0002(r15)
    c5da:	8f 4e 00 00 	mov	r14,	0(r15)	;0x0000(r15)
    c5de:	f0 3f       	jmp	$-30     	;abs 0xc5c0

0000c5e0 <event_notifyISR>:
    c5e0:	2e 4f       	mov	@r15,	r14	
    c5e2:	0e 93       	tst	r14		
    c5e4:	1d 24       	jz	$+60     	;abs 0xc620
    c5e6:	af 4e 00 00 	mov	@r14,	0(r15)	;0x0000(r15)
    c5ea:	5f 4e 1b 00 	mov.b	27(r14),r15	;0x001b(r14)
    c5ee:	0f 5f       	rla	r15		
    c5f0:	0f 5f       	rla	r15		
    c5f2:	3f 50 2a 02 	add	#554,	r15	;#0x022a
    c5f6:	8e 43 00 00 	mov	#0,	0(r14)	;r3 As==00, 0x0000(r14)
    c5fa:	8f 93 00 00 	tst	0(r15)		;0x0000(r15)
    c5fe:	12 24       	jz	$+38     	;abs 0xc624
    c600:	1d 4f 02 00 	mov	2(r15),	r13	;0x0002(r15)
    c604:	8d 4e 00 00 	mov	r14,	0(r13)	;0x0000(r13)
    c608:	8f 4e 02 00 	mov	r14,	2(r15)	;0x0002(r15)
    c60c:	1d 42 00 02 	mov	&0x0200,r13	
    c610:	5f 43       	mov.b	#1,	r15	;r3 As==01
    c612:	de 9d 1b 00 	cmp.b	27(r13),27(r14)	;0x001b(r13), 0x001b(r14)
    c616:	1b 00 
    c618:	01 2c       	jc	$+4      	;abs 0xc61c
    c61a:	30 41       	ret			
    c61c:	4f 43       	clr.b	r15		
    c61e:	30 41       	ret			
    c620:	4f 43       	clr.b	r15		
    c622:	30 41       	ret			
    c624:	8f 4e 02 00 	mov	r14,	2(r15)	;0x0002(r15)
    c628:	8f 4e 00 00 	mov	r14,	0(r15)	;0x0000(r15)
    c62c:	ef 3f       	jmp	$-32     	;abs 0xc60c

0000c62e <mutex_init>:
    c62e:	8f 43 00 00 	mov	#0,	0(r15)	;r3 As==00, 0x0000(r15)
    c632:	8f 43 02 00 	mov	#0,	2(r15)	;r3 As==00, 0x0002(r15)
    c636:	30 41       	ret			

0000c638 <mutex_enterCritical>:
    c638:	0b 12       	push	r11		
    c63a:	0b 4f       	mov	r15,	r11	
    c63c:	32 c2       	dint			
    c63e:	03 43       	nop			
    c640:	1f 42 00 02 	mov	&0x0200,r15	
    c644:	df 53 1a 00 	inc.b	26(r15)	;0x001a(r15)
    c648:	1f 4b 02 00 	mov	2(r11),	r15	;0x0002(r11)
    c64c:	0f 93       	tst	r15		
    c64e:	1b 24       	jz	$+56     	;abs 0xc686
    c650:	1c 42 00 02 	mov	&0x0200,r12	
    c654:	2d 4b       	mov	@r11,	r13	
    c656:	0d 93       	tst	r13		
    c658:	06 20       	jnz	$+14     	;abs 0xc666
    c65a:	1a 3c       	jmp	$+54     	;abs 0xc690
    c65c:	de 9c 1b 00 	cmp.b	27(r12),27(r14)	;0x001b(r12), 0x001b(r14)
    c660:	1b 00 
    c662:	04 2c       	jc	$+10     	;abs 0xc66c
    c664:	0d 4e       	mov	r14,	r13	
    c666:	2e 4d       	mov	@r13,	r14	
    c668:	0e 93       	tst	r14		
    c66a:	f8 23       	jnz	$-14     	;abs 0xc65c
    c66c:	8c 4e 00 00 	mov	r14,	0(r12)	;0x0000(r12)
    c670:	8d 4c 00 00 	mov	r12,	0(r13)	;0x0000(r13)
    c674:	b0 12 46 c2 	call	#0xc246	
    c678:	32 d2       	eint			
    c67a:	32 c2       	dint			
    c67c:	03 43       	nop			
    c67e:	1f 4b 02 00 	mov	2(r11),	r15	;0x0002(r11)
    c682:	0f 93       	tst	r15		
    c684:	e5 23       	jnz	$-52     	;abs 0xc650
    c686:	9b 42 00 02 	mov	&0x0200,2(r11)	;0x0002(r11)
    c68a:	02 00 
    c68c:	3b 41       	pop	r11		
    c68e:	30 41       	ret			
    c690:	8b 4c 00 00 	mov	r12,	0(r11)	;0x0000(r11)
    c694:	ef 3f       	jmp	$-32     	;abs 0xc674

0000c696 <mutex_exitCritical>:
    c696:	8f 43 02 00 	mov	#0,	2(r15)	;r3 As==00, 0x0002(r15)
    c69a:	b0 12 c0 c2 	call	#0xc2c0	
    c69e:	1f 42 00 02 	mov	&0x0200,r15	
    c6a2:	5e 4f 1a 00 	mov.b	26(r15),r14	;0x001a(r15)
    c6a6:	7e 53       	add.b	#-1,	r14	;r3 As==11
    c6a8:	cf 4e 1a 00 	mov.b	r14,	26(r15)	;0x001a(r15)
    c6ac:	01 24       	jz	$+4      	;abs 0xc6b0
    c6ae:	30 41       	ret			
    c6b0:	32 d2       	eint			
    c6b2:	30 41       	ret			

0000c6b4 <mutex_enter>:
    c6b4:	0b 12       	push	r11		
    c6b6:	0b 4f       	mov	r15,	r11	
    c6b8:	32 c2       	dint			
    c6ba:	03 43       	nop			
    c6bc:	1f 42 00 02 	mov	&0x0200,r15	
    c6c0:	df 53 1a 00 	inc.b	26(r15)	;0x001a(r15)
    c6c4:	1f 4b 02 00 	mov	2(r11),	r15	;0x0002(r11)
    c6c8:	0f 93       	tst	r15		
    c6ca:	1b 24       	jz	$+56     	;abs 0xc702
    c6cc:	1c 42 00 02 	mov	&0x0200,r12	
    c6d0:	2d 4b       	mov	@r11,	r13	
    c6d2:	0d 93       	tst	r13		
    c6d4:	06 20       	jnz	$+14     	;abs 0xc6e2
    c6d6:	23 3c       	jmp	$+72     	;abs 0xc71e
    c6d8:	de 9c 1b 00 	cmp.b	27(r12),27(r14)	;0x001b(r12), 0x001b(r14)
    c6dc:	1b 00 
    c6de:	04 2c       	jc	$+10     	;abs 0xc6e8
    c6e0:	0d 4e       	mov	r14,	r13	
    c6e2:	2e 4d       	mov	@r13,	r14	
    c6e4:	0e 93       	tst	r14		
    c6e6:	f8 23       	jnz	$-14     	;abs 0xc6d8
    c6e8:	8c 4e 00 00 	mov	r14,	0(r12)	;0x0000(r12)
    c6ec:	8d 4c 00 00 	mov	r12,	0(r13)	;0x0000(r13)
    c6f0:	b0 12 46 c2 	call	#0xc246	
    c6f4:	32 d2       	eint			
    c6f6:	32 c2       	dint			
    c6f8:	03 43       	nop			
    c6fa:	1f 4b 02 00 	mov	2(r11),	r15	;0x0002(r11)
    c6fe:	0f 93       	tst	r15		
    c700:	e5 23       	jnz	$-52     	;abs 0xc6cc
    c702:	9b 42 00 02 	mov	&0x0200,2(r11)	;0x0002(r11)
    c706:	02 00 
    c708:	1f 42 00 02 	mov	&0x0200,r15	
    c70c:	5e 4f 1a 00 	mov.b	26(r15),r14	;0x001a(r15)
    c710:	7e 53       	add.b	#-1,	r14	;r3 As==11
    c712:	cf 4e 1a 00 	mov.b	r14,	26(r15)	;0x001a(r15)
    c716:	01 20       	jnz	$+4      	;abs 0xc71a
    c718:	32 d2       	eint			
    c71a:	3b 41       	pop	r11		
    c71c:	30 41       	ret			
    c71e:	8b 4c 00 00 	mov	r12,	0(r11)	;0x0000(r11)
    c722:	e6 3f       	jmp	$-50     	;abs 0xc6f0

0000c724 <mutex_exit>:
    c724:	32 c2       	dint			
    c726:	03 43       	nop			
    c728:	1e 42 00 02 	mov	&0x0200,r14	
    c72c:	de 53 1a 00 	inc.b	26(r14)	;0x001a(r14)
    c730:	8f 43 02 00 	mov	#0,	2(r15)	;r3 As==00, 0x0002(r15)
    c734:	b0 12 c0 c2 	call	#0xc2c0	
    c738:	1f 42 00 02 	mov	&0x0200,r15	
    c73c:	5e 4f 1a 00 	mov.b	26(r15),r14	;0x001a(r15)
    c740:	7e 53       	add.b	#-1,	r14	;r3 As==11
    c742:	cf 4e 1a 00 	mov.b	r14,	26(r15)	;0x001a(r15)
    c746:	01 24       	jz	$+4      	;abs 0xc74a
    c748:	30 41       	ret			
    c74a:	32 d2       	eint			
    c74c:	30 41       	ret			

0000c74e <timer_init>:
    c74e:	8f 43 02 00 	mov	#0,	2(r15)	;r3 As==00, 0x0002(r15)
    c752:	8f 43 00 00 	mov	#0,	0(r15)	;r3 As==00, 0x0000(r15)
    c756:	30 41       	ret			

0000c758 <timer_tick>:
    c758:	0b 12       	push	r11		
    c75a:	0c 4f       	mov	r15,	r12	
    c75c:	9f 53 02 00 	inc	2(r15)		;0x0002(r15)
    c760:	4f 43       	clr.b	r15		
    c762:	1d 4c 02 00 	mov	2(r12),	r13	;0x0002(r12)
    c766:	2e 4c       	mov	@r12,	r14	
    c768:	0e 93       	tst	r14		
    c76a:	26 24       	jz	$+78     	;abs 0xc7b8
    c76c:	1d 8e 02 00 	sub	2(r14),	r13	;0x0002(r14)
    c770:	0d 93       	tst	r13		
    c772:	22 38       	jl	$+70     	;abs 0xc7b8
    c774:	ac 4e 00 00 	mov	@r14,	0(r12)	;0x0000(r12)
    c778:	5d 4e 1b 00 	mov.b	27(r14),r13	;0x001b(r14)
    c77c:	0d 5d       	rla	r13		
    c77e:	0d 5d       	rla	r13		
    c780:	3d 50 2a 02 	add	#554,	r13	;#0x022a
    c784:	8e 43 00 00 	mov	#0,	0(r14)	;r3 As==00, 0x0000(r14)
    c788:	8d 93 00 00 	tst	0(r13)		;0x0000(r13)
    c78c:	17 24       	jz	$+48     	;abs 0xc7bc
    c78e:	1b 4d 02 00 	mov	2(r13),	r11	;0x0002(r13)
    c792:	8b 4e 00 00 	mov	r14,	0(r11)	;0x0000(r11)
    c796:	8d 4e 02 00 	mov	r14,	2(r13)	;0x0002(r13)
    c79a:	1d 42 00 02 	mov	&0x0200,r13	
    c79e:	4f 4f       	mov.b	r15,	r15	
    c7a0:	1b 43       	mov	#1,	r11	;r3 As==01
    c7a2:	de 9d 1b 00 	cmp.b	27(r13),27(r14)	;0x001b(r13), 0x001b(r14)
    c7a6:	1b 00 
    c7a8:	01 28       	jnc	$+4      	;abs 0xc7ac
    c7aa:	0b 43       	clr	r11		
    c7ac:	4f db       	bis.b	r11,	r15	
    c7ae:	1d 4c 02 00 	mov	2(r12),	r13	;0x0002(r12)
    c7b2:	2e 4c       	mov	@r12,	r14	
    c7b4:	0e 93       	tst	r14		
    c7b6:	da 23       	jnz	$-74     	;abs 0xc76c
    c7b8:	3b 41       	pop	r11		
    c7ba:	30 41       	ret			
    c7bc:	8d 4e 02 00 	mov	r14,	2(r13)	;0x0002(r13)
    c7c0:	8d 4e 00 00 	mov	r14,	0(r13)	;0x0000(r13)
    c7c4:	ea 3f       	jmp	$-42     	;abs 0xc79a

0000c7c6 <timer_shift>:
    c7c6:	0b 12       	push	r11		
    c7c8:	0a 12       	push	r10		
    c7ca:	32 c2       	dint			
    c7cc:	03 43       	nop			
    c7ce:	1d 42 00 02 	mov	&0x0200,r13	
    c7d2:	dd 53 1a 00 	inc.b	26(r13)	;0x001a(r13)
    c7d6:	1d 42 00 02 	mov	&0x0200,r13	
    c7da:	1a 4d 02 00 	mov	2(r13),	r10	;0x0002(r13)
    c7de:	1d 42 00 02 	mov	&0x0200,r13	
    c7e2:	8d 5e 02 00 	add	r14,	2(r13)	;0x0002(r13)
    c7e6:	1d 42 00 02 	mov	&0x0200,r13	
    c7ea:	2e 4f       	mov	@r15,	r14	
    c7ec:	0e 93       	tst	r14		
    c7ee:	07 24       	jz	$+16     	;abs 0xc7fe
    c7f0:	1b 4d 02 00 	mov	2(r13),	r11	;0x0002(r13)
    c7f4:	1c 4e 02 00 	mov	2(r14),	r12	;0x0002(r14)
    c7f8:	0c 8b       	sub	r11,	r12	
    c7fa:	0c 93       	tst	r12		
    c7fc:	1f 38       	jl	$+64     	;abs 0xc83c
    c7fe:	8d 4e 00 00 	mov	r14,	0(r13)	;0x0000(r13)
    c802:	8f 4d 00 00 	mov	r13,	0(r15)	;0x0000(r15)
    c806:	b0 12 46 c2 	call	#0xc246	
    c80a:	32 d2       	eint			
    c80c:	32 c2       	dint			
    c80e:	03 43       	nop			
    c810:	1f 42 00 02 	mov	&0x0200,r15	
    c814:	8f 4a 02 00 	mov	r10,	2(r15)	;0x0002(r15)
    c818:	1f 42 00 02 	mov	&0x0200,r15	
    c81c:	5e 4f 1a 00 	mov.b	26(r15),r14	;0x001a(r15)
    c820:	7e 53       	add.b	#-1,	r14	;r3 As==11
    c822:	cf 4e 1a 00 	mov.b	r14,	26(r15)	;0x001a(r15)
    c826:	01 20       	jnz	$+4      	;abs 0xc82a
    c828:	32 d2       	eint			
    c82a:	3a 41       	pop	r10		
    c82c:	3b 41       	pop	r11		
    c82e:	30 41       	ret			
    c830:	1c 4f 02 00 	mov	2(r15),	r12	;0x0002(r15)
    c834:	0c 8b       	sub	r11,	r12	
    c836:	0c 93       	tst	r12		
    c838:	04 34       	jge	$+10     	;abs 0xc842
    c83a:	0e 4f       	mov	r15,	r14	
    c83c:	2f 4e       	mov	@r14,	r15	
    c83e:	0f 93       	tst	r15		
    c840:	f7 23       	jnz	$-16     	;abs 0xc830
    c842:	8d 4f 00 00 	mov	r15,	0(r13)	;0x0000(r13)
    c846:	8e 4d 00 00 	mov	r13,	0(r14)	;0x0000(r14)
    c84a:	dd 3f       	jmp	$-68     	;abs 0xc806

0000c84c <timer_period>:
    c84c:	0b 12       	push	r11		
    c84e:	32 c2       	dint			
    c850:	03 43       	nop			
    c852:	1d 42 00 02 	mov	&0x0200,r13	
    c856:	dd 53 1a 00 	inc.b	26(r13)	;0x001a(r13)
    c85a:	1d 42 00 02 	mov	&0x0200,r13	
    c85e:	8d 5e 02 00 	add	r14,	2(r13)	;0x0002(r13)
    c862:	1d 42 00 02 	mov	&0x0200,r13	
    c866:	2e 4f       	mov	@r15,	r14	
    c868:	0e 93       	tst	r14		
    c86a:	07 24       	jz	$+16     	;abs 0xc87a
    c86c:	1b 4d 02 00 	mov	2(r13),	r11	;0x0002(r13)
    c870:	1c 4e 02 00 	mov	2(r14),	r12	;0x0002(r14)
    c874:	0c 8b       	sub	r11,	r12	
    c876:	0c 93       	tst	r12		
    c878:	1a 38       	jl	$+54     	;abs 0xc8ae
    c87a:	8d 4e 00 00 	mov	r14,	0(r13)	;0x0000(r13)
    c87e:	8f 4d 00 00 	mov	r13,	0(r15)	;0x0000(r15)
    c882:	b0 12 46 c2 	call	#0xc246	
    c886:	32 d2       	eint			
    c888:	32 c2       	dint			
    c88a:	03 43       	nop			
    c88c:	1f 42 00 02 	mov	&0x0200,r15	
    c890:	5e 4f 1a 00 	mov.b	26(r15),r14	;0x001a(r15)
    c894:	7e 53       	add.b	#-1,	r14	;r3 As==11
    c896:	cf 4e 1a 00 	mov.b	r14,	26(r15)	;0x001a(r15)
    c89a:	01 20       	jnz	$+4      	;abs 0xc89e
    c89c:	32 d2       	eint			
    c89e:	3b 41       	pop	r11		
    c8a0:	30 41       	ret			
    c8a2:	1c 4f 02 00 	mov	2(r15),	r12	;0x0002(r15)
    c8a6:	0c 8b       	sub	r11,	r12	
    c8a8:	0c 93       	tst	r12		
    c8aa:	04 34       	jge	$+10     	;abs 0xc8b4
    c8ac:	0e 4f       	mov	r15,	r14	
    c8ae:	2f 4e       	mov	@r14,	r15	
    c8b0:	0f 93       	tst	r15		
    c8b2:	f7 23       	jnz	$-16     	;abs 0xc8a2
    c8b4:	8d 4f 00 00 	mov	r15,	0(r13)	;0x0000(r13)
    c8b8:	8e 4d 00 00 	mov	r13,	0(r14)	;0x0000(r14)
    c8bc:	e2 3f       	jmp	$-58     	;abs 0xc882

0000c8be <timer_delay>:
    c8be:	0b 12       	push	r11		
    c8c0:	0a 12       	push	r10		
    c8c2:	32 c2       	dint			
    c8c4:	03 43       	nop			
    c8c6:	1d 42 00 02 	mov	&0x0200,r13	
    c8ca:	dd 53 1a 00 	inc.b	26(r13)	;0x001a(r13)
    c8ce:	1d 42 00 02 	mov	&0x0200,r13	
    c8d2:	1a 4d 02 00 	mov	2(r13),	r10	;0x0002(r13)
    c8d6:	1d 42 00 02 	mov	&0x0200,r13	
    c8da:	1e 5f 02 00 	add	2(r15),	r14	;0x0002(r15)
    c8de:	8d 4e 02 00 	mov	r14,	2(r13)	;0x0002(r13)
    c8e2:	1d 42 00 02 	mov	&0x0200,r13	
    c8e6:	2e 4f       	mov	@r15,	r14	
    c8e8:	0e 93       	tst	r14		
    c8ea:	07 24       	jz	$+16     	;abs 0xc8fa
    c8ec:	1b 4d 02 00 	mov	2(r13),	r11	;0x0002(r13)
    c8f0:	1c 4e 02 00 	mov	2(r14),	r12	;0x0002(r14)
    c8f4:	0c 8b       	sub	r11,	r12	
    c8f6:	0c 93       	tst	r12		
    c8f8:	1f 38       	jl	$+64     	;abs 0xc938
    c8fa:	8d 4e 00 00 	mov	r14,	0(r13)	;0x0000(r13)
    c8fe:	8f 4d 00 00 	mov	r13,	0(r15)	;0x0000(r15)
    c902:	b0 12 46 c2 	call	#0xc246	
    c906:	32 d2       	eint			
    c908:	32 c2       	dint			
    c90a:	03 43       	nop			
    c90c:	1f 42 00 02 	mov	&0x0200,r15	
    c910:	8f 4a 02 00 	mov	r10,	2(r15)	;0x0002(r15)
    c914:	1f 42 00 02 	mov	&0x0200,r15	
    c918:	5e 4f 1a 00 	mov.b	26(r15),r14	;0x001a(r15)
    c91c:	7e 53       	add.b	#-1,	r14	;r3 As==11
    c91e:	cf 4e 1a 00 	mov.b	r14,	26(r15)	;0x001a(r15)
    c922:	01 20       	jnz	$+4      	;abs 0xc926
    c924:	32 d2       	eint			
    c926:	3a 41       	pop	r10		
    c928:	3b 41       	pop	r11		
    c92a:	30 41       	ret			
    c92c:	1c 4f 02 00 	mov	2(r15),	r12	;0x0002(r15)
    c930:	0c 8b       	sub	r11,	r12	
    c932:	0c 93       	tst	r12		
    c934:	04 34       	jge	$+10     	;abs 0xc93e
    c936:	0e 4f       	mov	r15,	r14	
    c938:	2f 4e       	mov	@r14,	r15	
    c93a:	0f 93       	tst	r15		
    c93c:	f7 23       	jnz	$-16     	;abs 0xc92c
    c93e:	8d 4f 00 00 	mov	r15,	0(r13)	;0x0000(r13)
    c942:	8e 4d 00 00 	mov	r13,	0(r14)	;0x0000(r14)
    c946:	dd 3f       	jmp	$-68     	;abs 0xc902

0000c948 <timer_abort>:
    c948:	32 c2       	dint			
    c94a:	03 43       	nop			
    c94c:	1d 42 00 02 	mov	&0x0200,r13	
    c950:	dd 53 1a 00 	inc.b	26(r13)	;0x001a(r13)
    c954:	2d 4f       	mov	@r15,	r13	
    c956:	0d 93       	tst	r13		
    c958:	49 24       	jz	$+148    	;abs 0xc9ec
    c95a:	0e 9d       	cmp	r13,	r14	
    c95c:	04 20       	jnz	$+10     	;abs 0xc966
    c95e:	48 3c       	jmp	$+146    	;abs 0xc9f0
    c960:	0e 9f       	cmp	r15,	r14	
    c962:	0f 24       	jz	$+32     	;abs 0xc982
    c964:	0d 4f       	mov	r15,	r13	
    c966:	2f 4d       	mov	@r13,	r15	
    c968:	0f 93       	tst	r15		
    c96a:	fa 23       	jnz	$-10     	;abs 0xc960
    c96c:	1e 42 00 02 	mov	&0x0200,r14	
    c970:	5d 4e 1a 00 	mov.b	26(r14),r13	;0x001a(r14)
    c974:	7d 53       	add.b	#-1,	r13	;r3 As==11
    c976:	ce 4d 1a 00 	mov.b	r13,	26(r14)	;0x001a(r14)
    c97a:	01 24       	jz	$+4      	;abs 0xc97e
    c97c:	30 41       	ret			
    c97e:	32 d2       	eint			
    c980:	30 41       	ret			
    c982:	ad 4e 00 00 	mov	@r14,	0(r13)	;0x0000(r13)
    c986:	5f 4e 1b 00 	mov.b	27(r14),r15	;0x001b(r14)
    c98a:	0f 5f       	rla	r15		
    c98c:	0f 5f       	rla	r15		
    c98e:	3f 50 2a 02 	add	#554,	r15	;#0x022a
    c992:	8e 43 00 00 	mov	#0,	0(r14)	;r3 As==00, 0x0000(r14)
    c996:	8f 93 00 00 	tst	0(r15)		;0x0000(r15)
    c99a:	2d 24       	jz	$+92     	;abs 0xc9f6
    c99c:	1d 4f 02 00 	mov	2(r15),	r13	;0x0002(r15)
    c9a0:	8d 4e 00 00 	mov	r14,	0(r13)	;0x0000(r13)
    c9a4:	8f 4e 02 00 	mov	r14,	2(r15)	;0x0002(r15)
    c9a8:	1f 42 00 02 	mov	&0x0200,r15	
    c9ac:	de 9f 1b 00 	cmp.b	27(r15),27(r14)	;0x001b(r15), 0x001b(r14)
    c9b0:	1b 00 
    c9b2:	02 28       	jnc	$+6      	;abs 0xc9b8
    c9b4:	5f 43       	mov.b	#1,	r15	;r3 As==01
    c9b6:	da 3f       	jmp	$-74     	;abs 0xc96c
    c9b8:	1e 42 00 02 	mov	&0x0200,r14	
    c9bc:	5f 4e 1b 00 	mov.b	27(r14),r15	;0x001b(r14)
    c9c0:	0f 5f       	rla	r15		
    c9c2:	0f 5f       	rla	r15		
    c9c4:	3f 50 2a 02 	add	#554,	r15	;#0x022a
    c9c8:	8e 43 00 00 	mov	#0,	0(r14)	;r3 As==00, 0x0000(r14)
    c9cc:	8f 93 00 00 	tst	0(r15)		;0x0000(r15)
    c9d0:	17 24       	jz	$+48     	;abs 0xca00
    c9d2:	1d 4f 02 00 	mov	2(r15),	r13	;0x0002(r15)
    c9d6:	8d 4e 00 00 	mov	r14,	0(r13)	;0x0000(r13)
    c9da:	8f 4e 02 00 	mov	r14,	2(r15)	;0x0002(r15)
    c9de:	b0 12 46 c2 	call	#0xc246	
    c9e2:	32 d2       	eint			
    c9e4:	32 c2       	dint			
    c9e6:	03 43       	nop			
    c9e8:	5f 43       	mov.b	#1,	r15	;r3 As==01
    c9ea:	c0 3f       	jmp	$-126    	;abs 0xc96c
    c9ec:	4f 43       	clr.b	r15		
    c9ee:	be 3f       	jmp	$-130    	;abs 0xc96c
    c9f0:	af 4e 00 00 	mov	@r14,	0(r15)	;0x0000(r15)
    c9f4:	c8 3f       	jmp	$-110    	;abs 0xc986
    c9f6:	8f 4e 02 00 	mov	r14,	2(r15)	;0x0002(r15)
    c9fa:	8f 4e 00 00 	mov	r14,	0(r15)	;0x0000(r15)
    c9fe:	d4 3f       	jmp	$-86     	;abs 0xc9a8
    ca00:	8f 4e 02 00 	mov	r14,	2(r15)	;0x0002(r15)
    ca04:	8f 4e 00 00 	mov	r14,	0(r15)	;0x0000(r15)
    ca08:	ea 3f       	jmp	$-42     	;abs 0xc9de

0000ca0a <adc_init>:
    ca0a:	3f 40 3a 02 	mov	#570,	r15	;#0x023a
    ca0e:	b0 12 e4 c4 	call	#0xc4e4	
    ca12:	3f 40 3c 02 	mov	#572,	r15	;#0x023c
    ca16:	b0 12 2e c6 	call	#0xc62e	
    ca1a:	30 41       	ret			

0000ca1c <adc_get>:
    ca1c:	0b 12       	push	r11		
    ca1e:	0b 4f       	mov	r15,	r11	
    ca20:	3f 40 3c 02 	mov	#572,	r15	;#0x023c
    ca24:	b0 12 38 c6 	call	#0xc638	
    ca28:	4f 4b       	mov.b	r11,	r15	
    ca2a:	8f 10       	swpb	r15		
    ca2c:	0f 5f       	rla	r15		
    ca2e:	0f 5f       	rla	r15		
    ca30:	0f 5f       	rla	r15		
    ca32:	0f 5f       	rla	r15		
    ca34:	b2 40 18 18 	mov	#6168,	&0x01b0	;#0x1818
    ca38:	b0 01 
    ca3a:	82 4f b2 01 	mov	r15,	&0x01b2	
    ca3e:	b2 d0 03 00 	bis	#3,	&0x01b0	;#0x0003
    ca42:	b0 01 
    ca44:	3f 40 3a 02 	mov	#570,	r15	;#0x023a
    ca48:	b0 12 ea c4 	call	#0xc4ea	
    ca4c:	1b 42 b4 01 	mov	&0x01b4,r11	
    ca50:	3f 40 3c 02 	mov	#572,	r15	;#0x023c
    ca54:	b0 12 96 c6 	call	#0xc696	
    ca58:	0f 4b       	mov	r11,	r15	
    ca5a:	3b 41       	pop	r11		
    ca5c:	30 41       	ret			

0000ca5e <_isr>:
    ca5e:	0f 12       	push	r15		
    ca60:	0e 12       	push	r14		
    ca62:	0d 12       	push	r13		
    ca64:	0c 12       	push	r12		
    ca66:	b2 f0 ef ff 	and	#-17,	&0x01b0	;#0xffef
    ca6a:	b0 01 
    ca6c:	3f 40 3a 02 	mov	#570,	r15	;#0x023a
    ca70:	b0 12 40 c5 	call	#0xc540	
    ca74:	3c 41       	pop	r12		
    ca76:	3d 41       	pop	r13		
    ca78:	3e 41       	pop	r14		
    ca7a:	3f 41       	pop	r15		
    ca7c:	00 13       	reti			

0000ca7e <board_init>:
    ca7e:	b2 40 80 5a 	mov	#23168,	&0x0120	;#0x5a80
    ca82:	20 01 
    ca84:	d2 42 ff 10 	mov.b	&0x10ff,&0x0057	
    ca88:	57 00 
    ca8a:	d2 42 fe 10 	mov.b	&0x10fe,&0x0056	
    ca8e:	56 00 
    ca90:	f2 f0 bf ff 	and.b	#-65,	&0x0021	;#0xffbf
    ca94:	21 00 
    ca96:	f2 f0 fe ff 	and.b	#-2,	&0x0021	;#0xfffe
    ca9a:	21 00 
    ca9c:	d2 d3 22 00 	bis.b	#1,	&0x0022	;r3 As==01
    caa0:	f2 d0 40 00 	bis.b	#64,	&0x0022	;#0x0040
    caa4:	22 00 
    caa6:	f2 f0 f7 ff 	and.b	#-9,	&0x0022	;#0xfff7
    caaa:	22 00 
    caac:	f2 d2 27 00 	bis.b	#8,	&0x0027	;r2 As==11
    cab0:	3f 40 40 02 	mov	#576,	r15	;#0x0240
    cab4:	b0 12 e4 c4 	call	#0xc4e4	
    cab8:	30 41       	ret			

0000caba <board_switch_waitToPressed>:
    caba:	b0 12 5a c4 	call	#0xc45a	
    cabe:	f2 f0 f7 ff 	and.b	#-9,	&0x0023	;#0xfff7
    cac2:	23 00 
    cac4:	f2 d2 24 00 	bis.b	#8,	&0x0024	;r2 As==11
    cac8:	f2 d2 25 00 	bis.b	#8,	&0x0025	;r2 As==11
    cacc:	3f 40 40 02 	mov	#576,	r15	;#0x0240
    cad0:	b0 12 ea c4 	call	#0xc4ea	
    cad4:	b0 12 68 c4 	call	#0xc468	
    cad8:	30 41       	ret			

0000cada <board_switch_waitToReleased>:
    cada:	b0 12 5a c4 	call	#0xc45a	
    cade:	f2 f0 f7 ff 	and.b	#-9,	&0x0023	;#0xfff7
    cae2:	23 00 
    cae4:	f2 f0 f7 ff 	and.b	#-9,	&0x0024	;#0xfff7
    cae8:	24 00 
    caea:	f2 d2 25 00 	bis.b	#8,	&0x0025	;r2 As==11
    caee:	3f 40 40 02 	mov	#576,	r15	;#0x0240
    caf2:	b0 12 ea c4 	call	#0xc4ea	
    caf6:	b0 12 68 c4 	call	#0xc468	
    cafa:	30 41       	ret			

0000cafc <_port1_isr>:
    cafc:	0f 12       	push	r15		
    cafe:	0e 12       	push	r14		
    cb00:	0d 12       	push	r13		
    cb02:	0c 12       	push	r12		
    cb04:	f2 f0 f7 ff 	and.b	#-9,	&0x0025	;#0xfff7
    cb08:	25 00 
    cb0a:	f2 f0 f7 ff 	and.b	#-9,	&0x0023	;#0xfff7
    cb0e:	23 00 
    cb10:	3f 40 40 02 	mov	#576,	r15	;#0x0240
    cb14:	b0 12 40 c5 	call	#0xc540	
    cb18:	3c 41       	pop	r12		
    cb1a:	3d 41       	pop	r13		
    cb1c:	3e 41       	pop	r14		
    cb1e:	3f 41       	pop	r15		
    cb20:	00 13       	reti			

0000cb22 <serial_init>:
    cb22:	2d 42       	mov	#4,	r13	;r2 As==10
    cb24:	3e 40 58 02 	mov	#600,	r14	;#0x0258
    cb28:	3f 40 42 02 	mov	#578,	r15	;#0x0242
    cb2c:	b0 12 98 c0 	call	#0xc098	
    cb30:	2d 42       	mov	#4,	r13	;r2 As==10
    cb32:	3e 40 72 02 	mov	#626,	r14	;#0x0272
    cb36:	3f 40 5c 02 	mov	#604,	r15	;#0x025c
    cb3a:	b0 12 98 c0 	call	#0xc098	
    cb3e:	d2 d3 61 00 	bis.b	#1,	&0x0061	;r3 As==01
    cb42:	f2 d0 06 00 	bis.b	#6,	&0x0026	;#0x0006
    cb46:	26 00 
    cb48:	f2 d0 06 00 	bis.b	#6,	&0x0041	;#0x0006
    cb4c:	41 00 
    cb4e:	f2 d0 80 ff 	bis.b	#-128,	&0x0061	;#0xff80
    cb52:	61 00 
    cb54:	f2 40 68 00 	mov.b	#104,	&0x0062	;#0x0068
    cb58:	62 00 
    cb5a:	c2 43 63 00 	mov.b	#0,	&0x0063	;r3 As==00
    cb5e:	e2 43 64 00 	mov.b	#2,	&0x0064	;r3 As==10
    cb62:	f2 f0 fe ff 	and.b	#-2,	&0x0061	;#0xfffe
    cb66:	61 00 
    cb68:	e2 d3 03 00 	bis.b	#2,	&0x0003	;r3 As==10
    cb6c:	d2 d3 01 00 	bis.b	#1,	&0x0001	;r3 As==01
    cb70:	30 41       	ret			

0000cb72 <_usciAB0_tx_isr>:
    cb72:	0f 12       	push	r15		
    cb74:	0e 12       	push	r14		
    cb76:	0d 12       	push	r13		
    cb78:	0c 12       	push	r12		
    cb7a:	21 83       	decd	r1		
    cb7c:	2d 43       	mov	#2,	r13	;r3 As==10
    cb7e:	0e 41       	mov	r1,	r14	
    cb80:	3f 40 5c 02 	mov	#604,	r15	;#0x025c
    cb84:	b0 12 f0 c1 	call	#0xc1f0	
    cb88:	1f 93       	cmp	#1,	r15	;r3 As==01
    cb8a:	14 24       	jz	$+42     	;abs 0xcbb4
    cb8c:	0a 28       	jnc	$+22     	;abs 0xcba2
    cb8e:	2f 93       	cmp	#2,	r15	;r3 As==10
    cb90:	02 20       	jnz	$+6      	;abs 0xcb96
    cb92:	e2 41 67 00 	mov.b	@r1,	&0x0067	
    cb96:	21 53       	incd	r1		
    cb98:	3c 41       	pop	r12		
    cb9a:	3d 41       	pop	r13		
    cb9c:	3e 41       	pop	r14		
    cb9e:	3f 41       	pop	r15		
    cba0:	00 13       	reti			
    cba2:	f2 f0 fd ff 	and.b	#-3,	&0x0001	;#0xfffd
    cba6:	01 00 
    cba8:	21 53       	incd	r1		
    cbaa:	3c 41       	pop	r12		
    cbac:	3d 41       	pop	r13		
    cbae:	3e 41       	pop	r14		
    cbb0:	3f 41       	pop	r15		
    cbb2:	00 13       	reti			
    cbb4:	e2 41 67 00 	mov.b	@r1,	&0x0067	
    cbb8:	b0 12 aa c4 	call	#0xc4aa	
    cbbc:	21 53       	incd	r1		
    cbbe:	3c 41       	pop	r12		
    cbc0:	3d 41       	pop	r13		
    cbc2:	3e 41       	pop	r14		
    cbc4:	3f 41       	pop	r15		
    cbc6:	00 13       	reti			

0000cbc8 <_usciAB0_rx_isr>:
    cbc8:	0f 12       	push	r15		
    cbca:	0e 12       	push	r14		
    cbcc:	0d 12       	push	r13		
    cbce:	0c 12       	push	r12		
    cbd0:	5e 42 66 00 	mov.b	&0x0066,r14	
    cbd4:	3f 40 42 02 	mov	#578,	r15	;#0x0242
    cbd8:	b0 12 ae c1 	call	#0xc1ae	
    cbdc:	1f 93       	cmp	#1,	r15	;r3 As==01
    cbde:	02 20       	jnz	$+6      	;abs 0xcbe4
    cbe0:	b0 12 aa c4 	call	#0xc4aa	
    cbe4:	3c 41       	pop	r12		
    cbe6:	3d 41       	pop	r13		
    cbe8:	3e 41       	pop	r14		
    cbea:	3f 41       	pop	r15		
    cbec:	00 13       	reti			

0000cbee <serial_char>:
    cbee:	0b 12       	push	r11		
    cbf0:	4b 4f       	mov.b	r15,	r11	
    cbf2:	b0 12 5a c4 	call	#0xc45a	
    cbf6:	4e 4b       	mov.b	r11,	r14	
    cbf8:	3f 40 5c 02 	mov	#604,	r15	;#0x025c
    cbfc:	b0 12 dc c0 	call	#0xc0dc	
    cc00:	e2 d3 01 00 	bis.b	#2,	&0x0001	;r3 As==10
    cc04:	b0 12 68 c4 	call	#0xc468	
    cc08:	3b 41       	pop	r11		
    cc0a:	30 41       	ret			

0000cc0c <serial_endl>:
    cc0c:	0b 12       	push	r11		
    cc0e:	b0 12 5a c4 	call	#0xc45a	
    cc12:	7e 40 0d 00 	mov.b	#13,	r14	;#0x000d
    cc16:	3b 40 58 e7 	mov	#-6312,	r11	;#0xe758
    cc1a:	1b 53       	inc	r11		
    cc1c:	3f 40 5c 02 	mov	#604,	r15	;#0x025c
    cc20:	b0 12 dc c0 	call	#0xc0dc	
    cc24:	e2 d3 01 00 	bis.b	#2,	&0x0001	;r3 As==10
    cc28:	6e 4b       	mov.b	@r11,	r14	
    cc2a:	4e 93       	tst.b	r14		
    cc2c:	f6 23       	jnz	$-18     	;abs 0xcc1a
    cc2e:	b0 12 68 c4 	call	#0xc468	
    cc32:	3b 41       	pop	r11		
    cc34:	30 41       	ret			

0000cc36 <serial_line>:
    cc36:	0b 12       	push	r11		
    cc38:	0b 4f       	mov	r15,	r11	
    cc3a:	b0 12 5a c4 	call	#0xc45a	
    cc3e:	6e 4b       	mov.b	@r11,	r14	
    cc40:	4e 93       	tst.b	r14		
    cc42:	0a 24       	jz	$+22     	;abs 0xcc58
    cc44:	1b 53       	inc	r11		
    cc46:	3f 40 5c 02 	mov	#604,	r15	;#0x025c
    cc4a:	b0 12 dc c0 	call	#0xc0dc	
    cc4e:	e2 d3 01 00 	bis.b	#2,	&0x0001	;r3 As==10
    cc52:	6e 4b       	mov.b	@r11,	r14	
    cc54:	4e 93       	tst.b	r14		
    cc56:	f6 23       	jnz	$-18     	;abs 0xcc44
    cc58:	7e 40 0d 00 	mov.b	#13,	r14	;#0x000d
    cc5c:	3b 40 58 e7 	mov	#-6312,	r11	;#0xe758
    cc60:	1b 53       	inc	r11		
    cc62:	3f 40 5c 02 	mov	#604,	r15	;#0x025c
    cc66:	b0 12 dc c0 	call	#0xc0dc	
    cc6a:	e2 d3 01 00 	bis.b	#2,	&0x0001	;r3 As==10
    cc6e:	6e 4b       	mov.b	@r11,	r14	
    cc70:	4e 93       	tst.b	r14		
    cc72:	f6 23       	jnz	$-18     	;abs 0xcc60
    cc74:	b0 12 68 c4 	call	#0xc468	
    cc78:	3b 41       	pop	r11		
    cc7a:	30 41       	ret			

0000cc7c <serial_msg>:
    cc7c:	0b 12       	push	r11		
    cc7e:	0b 4f       	mov	r15,	r11	
    cc80:	b0 12 5a c4 	call	#0xc45a	
    cc84:	6e 4b       	mov.b	@r11,	r14	
    cc86:	4e 93       	tst.b	r14		
    cc88:	0a 24       	jz	$+22     	;abs 0xcc9e
    cc8a:	1b 53       	inc	r11		
    cc8c:	3f 40 5c 02 	mov	#604,	r15	;#0x025c
    cc90:	b0 12 dc c0 	call	#0xc0dc	
    cc94:	e2 d3 01 00 	bis.b	#2,	&0x0001	;r3 As==10
    cc98:	6e 4b       	mov.b	@r11,	r14	
    cc9a:	4e 93       	tst.b	r14		
    cc9c:	f6 23       	jnz	$-18     	;abs 0xcc8a
    cc9e:	b0 12 68 c4 	call	#0xc468	
    cca2:	3b 41       	pop	r11		
    cca4:	30 41       	ret			

0000cca6 <serial_x8>:
    cca6:	0b 12       	push	r11		
    cca8:	0a 12       	push	r10		
    ccaa:	4b 4f       	mov.b	r15,	r11	
    ccac:	b0 12 5a c4 	call	#0xc45a	
    ccb0:	4a 4b       	mov.b	r11,	r10	
    ccb2:	4f 4b       	mov.b	r11,	r15	
    ccb4:	12 c3       	clrc			
    ccb6:	4f 10       	rrc.b	r15		
    ccb8:	12 c3       	clrc			
    ccba:	4f 10       	rrc.b	r15		
    ccbc:	12 c3       	clrc			
    ccbe:	4f 10       	rrc.b	r15		
    ccc0:	12 c3       	clrc			
    ccc2:	4f 10       	rrc.b	r15		
    ccc4:	3f f0 0f 00 	and	#15,	r15	;#0x000f
    ccc8:	3b 40 66 e7 	mov	#-6298,	r11	;#0xe766
    cccc:	0f 5b       	add	r11,	r15	
    ccce:	6e 4f       	mov.b	@r15,	r14	
    ccd0:	3f 40 5c 02 	mov	#604,	r15	;#0x025c
    ccd4:	b0 12 dc c0 	call	#0xc0dc	
    ccd8:	e2 d3 01 00 	bis.b	#2,	&0x0001	;r3 As==10
    ccdc:	0f 4a       	mov	r10,	r15	
    ccde:	3f f0 0f 00 	and	#15,	r15	;#0x000f
    cce2:	0f 5b       	add	r11,	r15	
    cce4:	6e 4f       	mov.b	@r15,	r14	
    cce6:	3f 40 5c 02 	mov	#604,	r15	;#0x025c
    ccea:	b0 12 dc c0 	call	#0xc0dc	
    ccee:	e2 d3 01 00 	bis.b	#2,	&0x0001	;r3 As==10
    ccf2:	b0 12 68 c4 	call	#0xc468	
    ccf6:	3a 41       	pop	r10		
    ccf8:	3b 41       	pop	r11		
    ccfa:	30 41       	ret			

0000ccfc <serial_u16>:
    ccfc:	0b 12       	push	r11		
    ccfe:	0a 12       	push	r10		
    cd00:	09 12       	push	r9		
    cd02:	08 12       	push	r8		
    cd04:	07 12       	push	r7		
    cd06:	0b 4f       	mov	r15,	r11	
    cd08:	b0 12 5a c4 	call	#0xc45a	
    cd0c:	3b 90 10 27 	cmp	#10000,	r11	;#0x2710
    cd10:	1a 2c       	jc	$+54     	;abs 0xcd46
    cd12:	3b 90 e8 03 	cmp	#1000,	r11	;#0x03e8
    cd16:	34 2c       	jc	$+106    	;abs 0xcd80
    cd18:	3b 90 64 00 	cmp	#100,	r11	;#0x0064
    cd1c:	33 2c       	jc	$+104    	;abs 0xcd84
    cd1e:	3b 90 0a 00 	cmp	#10,	r11	;#0x000a
    cd22:	32 2c       	jc	$+102    	;abs 0xcd88
    cd24:	4e 4b       	mov.b	r11,	r14	
    cd26:	7e 50 30 00 	add.b	#48,	r14	;#0x0030
    cd2a:	3f 40 5c 02 	mov	#604,	r15	;#0x025c
    cd2e:	b0 12 dc c0 	call	#0xc0dc	
    cd32:	e2 d3 01 00 	bis.b	#2,	&0x0001	;r3 As==10
    cd36:	b0 12 68 c4 	call	#0xc468	
    cd3a:	37 41       	pop	r7		
    cd3c:	38 41       	pop	r8		
    cd3e:	39 41       	pop	r9		
    cd40:	3a 41       	pop	r10		
    cd42:	3b 41       	pop	r11		
    cd44:	30 41       	ret			
    cd46:	0a 43       	clr	r10		
    cd48:	09 4a       	mov	r10,	r9	
    cd4a:	09 59       	rla	r9		
    cd4c:	39 50 7c e7 	add	#-6276,	r9	;#0xe77c
    cd50:	37 49       	mov	@r9+,	r7	
    cd52:	0e 47       	mov	r7,	r14	
    cd54:	0f 4b       	mov	r11,	r15	
    cd56:	b0 12 ba e5 	call	#0xe5ba	
    cd5a:	08 4f       	mov	r15,	r8	
    cd5c:	0e 4f       	mov	r15,	r14	
    cd5e:	0f 47       	mov	r7,	r15	
    cd60:	b0 12 a2 e5 	call	#0xe5a2	
    cd64:	0b 8f       	sub	r15,	r11	
    cd66:	4e 48       	mov.b	r8,	r14	
    cd68:	7e 50 30 00 	add.b	#48,	r14	;#0x0030
    cd6c:	3f 40 5c 02 	mov	#604,	r15	;#0x025c
    cd70:	b0 12 dc c0 	call	#0xc0dc	
    cd74:	e2 d3 01 00 	bis.b	#2,	&0x0001	;r3 As==10
    cd78:	1a 53       	inc	r10		
    cd7a:	2a 92       	cmp	#4,	r10	;r2 As==10
    cd7c:	e9 23       	jnz	$-44     	;abs 0xcd50
    cd7e:	d2 3f       	jmp	$-90     	;abs 0xcd24
    cd80:	1a 43       	mov	#1,	r10	;r3 As==01
    cd82:	e2 3f       	jmp	$-58     	;abs 0xcd48
    cd84:	2a 43       	mov	#2,	r10	;r3 As==10
    cd86:	e0 3f       	jmp	$-62     	;abs 0xcd48
    cd88:	3a 40 03 00 	mov	#3,	r10	;#0x0003
    cd8c:	dd 3f       	jmp	$-68     	;abs 0xcd48

0000cd8e <serial_s16>:
    cd8e:	0b 12       	push	r11		
    cd90:	0a 12       	push	r10		
    cd92:	09 12       	push	r9		
    cd94:	08 12       	push	r8		
    cd96:	07 12       	push	r7		
    cd98:	0b 4f       	mov	r15,	r11	
    cd9a:	b0 12 5a c4 	call	#0xc45a	
    cd9e:	0b 93       	tst	r11		
    cda0:	1d 38       	jl	$+60     	;abs 0xcddc
    cda2:	3b 90 10 27 	cmp	#10000,	r11	;#0x2710
    cda6:	25 2c       	jc	$+76     	;abs 0xcdf2
    cda8:	3b 90 e8 03 	cmp	#1000,	r11	;#0x03e8
    cdac:	3f 2c       	jc	$+128    	;abs 0xce2c
    cdae:	3b 90 64 00 	cmp	#100,	r11	;#0x0064
    cdb2:	3e 2c       	jc	$+126    	;abs 0xce30
    cdb4:	3b 90 0a 00 	cmp	#10,	r11	;#0x000a
    cdb8:	3d 2c       	jc	$+124    	;abs 0xce34
    cdba:	4e 4b       	mov.b	r11,	r14	
    cdbc:	7e 50 30 00 	add.b	#48,	r14	;#0x0030
    cdc0:	3f 40 5c 02 	mov	#604,	r15	;#0x025c
    cdc4:	b0 12 dc c0 	call	#0xc0dc	
    cdc8:	e2 d3 01 00 	bis.b	#2,	&0x0001	;r3 As==10
    cdcc:	b0 12 68 c4 	call	#0xc468	
    cdd0:	37 41       	pop	r7		
    cdd2:	38 41       	pop	r8		
    cdd4:	39 41       	pop	r9		
    cdd6:	3a 41       	pop	r10		
    cdd8:	3b 41       	pop	r11		
    cdda:	30 41       	ret			
    cddc:	3b e3       	inv	r11		
    cdde:	1b 53       	inc	r11		
    cde0:	7e 40 2d 00 	mov.b	#45,	r14	;#0x002d
    cde4:	3f 40 5c 02 	mov	#604,	r15	;#0x025c
    cde8:	b0 12 dc c0 	call	#0xc0dc	
    cdec:	e2 d3 01 00 	bis.b	#2,	&0x0001	;r3 As==10
    cdf0:	d8 3f       	jmp	$-78     	;abs 0xcda2
    cdf2:	0a 43       	clr	r10		
    cdf4:	09 4a       	mov	r10,	r9	
    cdf6:	09 59       	rla	r9		
    cdf8:	39 50 7c e7 	add	#-6276,	r9	;#0xe77c
    cdfc:	37 49       	mov	@r9+,	r7	
    cdfe:	0e 47       	mov	r7,	r14	
    ce00:	0f 4b       	mov	r11,	r15	
    ce02:	b0 12 ba e5 	call	#0xe5ba	
    ce06:	08 4f       	mov	r15,	r8	
    ce08:	0e 4f       	mov	r15,	r14	
    ce0a:	0f 47       	mov	r7,	r15	
    ce0c:	b0 12 a2 e5 	call	#0xe5a2	
    ce10:	0b 8f       	sub	r15,	r11	
    ce12:	4e 48       	mov.b	r8,	r14	
    ce14:	7e 50 30 00 	add.b	#48,	r14	;#0x0030
    ce18:	3f 40 5c 02 	mov	#604,	r15	;#0x025c
    ce1c:	b0 12 dc c0 	call	#0xc0dc	
    ce20:	e2 d3 01 00 	bis.b	#2,	&0x0001	;r3 As==10
    ce24:	1a 53       	inc	r10		
    ce26:	2a 92       	cmp	#4,	r10	;r2 As==10
    ce28:	e9 23       	jnz	$-44     	;abs 0xcdfc
    ce2a:	c7 3f       	jmp	$-112    	;abs 0xcdba
    ce2c:	1a 43       	mov	#1,	r10	;r3 As==01
    ce2e:	e2 3f       	jmp	$-58     	;abs 0xcdf4
    ce30:	2a 43       	mov	#2,	r10	;r3 As==10
    ce32:	e0 3f       	jmp	$-62     	;abs 0xcdf4
    ce34:	3a 40 03 00 	mov	#3,	r10	;#0x0003
    ce38:	dd 3f       	jmp	$-68     	;abs 0xcdf4

0000ce3a <serial_u8>:
    ce3a:	0b 12       	push	r11		
    ce3c:	0a 12       	push	r10		
    ce3e:	09 12       	push	r9		
    ce40:	08 12       	push	r8		
    ce42:	07 12       	push	r7		
    ce44:	4b 4f       	mov.b	r15,	r11	
    ce46:	b0 12 5a c4 	call	#0xc45a	
    ce4a:	4b 4b       	mov.b	r11,	r11	
    ce4c:	3b 90 64 00 	cmp	#100,	r11	;#0x0064
    ce50:	14 2c       	jc	$+42     	;abs 0xce7a
    ce52:	3b 90 0a 00 	cmp	#10,	r11	;#0x000a
    ce56:	2e 2c       	jc	$+94     	;abs 0xceb4
    ce58:	4e 4b       	mov.b	r11,	r14	
    ce5a:	7e 50 30 00 	add.b	#48,	r14	;#0x0030
    ce5e:	3f 40 5c 02 	mov	#604,	r15	;#0x025c
    ce62:	b0 12 dc c0 	call	#0xc0dc	
    ce66:	e2 d3 01 00 	bis.b	#2,	&0x0001	;r3 As==10
    ce6a:	b0 12 68 c4 	call	#0xc468	
    ce6e:	37 41       	pop	r7		
    ce70:	38 41       	pop	r8		
    ce72:	39 41       	pop	r9		
    ce74:	3a 41       	pop	r10		
    ce76:	3b 41       	pop	r11		
    ce78:	30 41       	ret			
    ce7a:	2a 43       	mov	#2,	r10	;r3 As==10
    ce7c:	09 4a       	mov	r10,	r9	
    ce7e:	09 59       	rla	r9		
    ce80:	39 50 7c e7 	add	#-6276,	r9	;#0xe77c
    ce84:	37 49       	mov	@r9+,	r7	
    ce86:	0e 47       	mov	r7,	r14	
    ce88:	0f 4b       	mov	r11,	r15	
    ce8a:	b0 12 ba e5 	call	#0xe5ba	
    ce8e:	08 4f       	mov	r15,	r8	
    ce90:	0e 4f       	mov	r15,	r14	
    ce92:	0f 47       	mov	r7,	r15	
    ce94:	b0 12 a2 e5 	call	#0xe5a2	
    ce98:	0b 8f       	sub	r15,	r11	
    ce9a:	4e 48       	mov.b	r8,	r14	
    ce9c:	7e 50 30 00 	add.b	#48,	r14	;#0x0030
    cea0:	3f 40 5c 02 	mov	#604,	r15	;#0x025c
    cea4:	b0 12 dc c0 	call	#0xc0dc	
    cea8:	e2 d3 01 00 	bis.b	#2,	&0x0001	;r3 As==10
    ceac:	1a 53       	inc	r10		
    ceae:	2a 92       	cmp	#4,	r10	;r2 As==10
    ceb0:	e9 23       	jnz	$-44     	;abs 0xce84
    ceb2:	d2 3f       	jmp	$-90     	;abs 0xce58
    ceb4:	3a 40 03 00 	mov	#3,	r10	;#0x0003
    ceb8:	e1 3f       	jmp	$-60     	;abs 0xce7c

0000ceba <serial_getStr>:
    ceba:	0b 12       	push	r11		
    cebc:	0a 12       	push	r10		
    cebe:	09 12       	push	r9		
    cec0:	08 12       	push	r8		
    cec2:	0a 4f       	mov	r15,	r10	
    cec4:	08 4e       	mov	r14,	r8	
    cec6:	b0 12 5a c4 	call	#0xc45a	
    ceca:	38 53       	add	#-1,	r8	;r3 As==11
    cecc:	09 43       	clr	r9		
    cece:	3f 40 42 02 	mov	#578,	r15	;#0x0242
    ced2:	b0 12 4c c1 	call	#0xc14c	
    ced6:	ca 4f 00 00 	mov.b	r15,	0(r10)	;0x0000(r10)
    ceda:	7f 90 20 00 	cmp.b	#32,	r15	;#0x0020
    cede:	0c 38       	jl	$+26     	;abs 0xcef8
    cee0:	09 98       	cmp	r8,	r9	
    cee2:	f5 2f       	jc	$-20     	;abs 0xcece
    cee4:	4e 4f       	mov.b	r15,	r14	
    cee6:	3f 40 5c 02 	mov	#604,	r15	;#0x025c
    ceea:	b0 12 dc c0 	call	#0xc0dc	
    ceee:	e2 d3 01 00 	bis.b	#2,	&0x0001	;r3 As==10
    cef2:	1a 53       	inc	r10		
    cef4:	19 53       	inc	r9		
    cef6:	eb 3f       	jmp	$-40     	;abs 0xcece
    cef8:	7f 92       	cmp.b	#8,	r15	;r2 As==11
    cefa:	12 20       	jnz	$+38     	;abs 0xcf20
    cefc:	09 93       	tst	r9		
    cefe:	e7 27       	jz	$-48     	;abs 0xcece
    cf00:	7e 42       	mov.b	#8,	r14	;r2 As==11
    cf02:	3b 40 77 e7 	mov	#-6281,	r11	;#0xe777
    cf06:	1b 53       	inc	r11		
    cf08:	3f 40 5c 02 	mov	#604,	r15	;#0x025c
    cf0c:	b0 12 dc c0 	call	#0xc0dc	
    cf10:	e2 d3 01 00 	bis.b	#2,	&0x0001	;r3 As==10
    cf14:	6e 4b       	mov.b	@r11,	r14	
    cf16:	4e 93       	tst.b	r14		
    cf18:	f6 23       	jnz	$-18     	;abs 0xcf06
    cf1a:	3a 53       	add	#-1,	r10	;r3 As==11
    cf1c:	39 53       	add	#-1,	r9	;r3 As==11
    cf1e:	d7 3f       	jmp	$-80     	;abs 0xcece
    cf20:	7e 40 0d 00 	mov.b	#13,	r14	;#0x000d
    cf24:	3b 40 58 e7 	mov	#-6312,	r11	;#0xe758
    cf28:	1b 53       	inc	r11		
    cf2a:	3f 40 5c 02 	mov	#604,	r15	;#0x025c
    cf2e:	b0 12 dc c0 	call	#0xc0dc	
    cf32:	e2 d3 01 00 	bis.b	#2,	&0x0001	;r3 As==10
    cf36:	6e 4b       	mov.b	@r11,	r14	
    cf38:	4e 93       	tst.b	r14		
    cf3a:	f6 23       	jnz	$-18     	;abs 0xcf28
    cf3c:	ca 43 00 00 	mov.b	#0,	0(r10)	;r3 As==00, 0x0000(r10)
    cf40:	b0 12 68 c4 	call	#0xc468	
    cf44:	0f 49       	mov	r9,	r15	
    cf46:	38 41       	pop	r8		
    cf48:	39 41       	pop	r9		
    cf4a:	3a 41       	pop	r10		
    cf4c:	3b 41       	pop	r11		
    cf4e:	30 41       	ret			

0000cf50 <serial_getNum>:
    cf50:	0b 12       	push	r11		
    cf52:	0a 12       	push	r10		
    cf54:	09 12       	push	r9		
    cf56:	08 12       	push	r8		
    cf58:	0b 4f       	mov	r15,	r11	
    cf5a:	08 4e       	mov	r14,	r8	
    cf5c:	b0 12 5a c4 	call	#0xc45a	
    cf60:	38 53       	add	#-1,	r8	;r3 As==11
    cf62:	09 43       	clr	r9		
    cf64:	3f 40 42 02 	mov	#578,	r15	;#0x0242
    cf68:	b0 12 4c c1 	call	#0xc14c	
    cf6c:	cb 4f 00 00 	mov.b	r15,	0(r11)	;0x0000(r11)
    cf70:	4d 4f       	mov.b	r15,	r13	
    cf72:	7d 50 d0 ff 	add.b	#-48,	r13	;#0xffd0
    cf76:	7d 90 0a 00 	cmp.b	#10,	r13	;#0x000a
    cf7a:	0c 2c       	jc	$+26     	;abs 0xcf94
    cf7c:	09 98       	cmp	r8,	r9	
    cf7e:	f2 2f       	jc	$-26     	;abs 0xcf64
    cf80:	4e 4f       	mov.b	r15,	r14	
    cf82:	3f 40 5c 02 	mov	#604,	r15	;#0x025c
    cf86:	b0 12 dc c0 	call	#0xc0dc	
    cf8a:	e2 d3 01 00 	bis.b	#2,	&0x0001	;r3 As==10
    cf8e:	1b 53       	inc	r11		
    cf90:	19 53       	inc	r9		
    cf92:	e8 3f       	jmp	$-46     	;abs 0xcf64
    cf94:	7f 92       	cmp.b	#8,	r15	;r2 As==11
    cf96:	1b 24       	jz	$+56     	;abs 0xcfce
    cf98:	7f 90 20 00 	cmp.b	#32,	r15	;#0x0020
    cf9c:	e3 37       	jge	$-56     	;abs 0xcf64
    cf9e:	7e 40 0d 00 	mov.b	#13,	r14	;#0x000d
    cfa2:	3a 40 58 e7 	mov	#-6312,	r10	;#0xe758
    cfa6:	1a 53       	inc	r10		
    cfa8:	3f 40 5c 02 	mov	#604,	r15	;#0x025c
    cfac:	b0 12 dc c0 	call	#0xc0dc	
    cfb0:	e2 d3 01 00 	bis.b	#2,	&0x0001	;r3 As==10
    cfb4:	6e 4a       	mov.b	@r10,	r14	
    cfb6:	4e 93       	tst.b	r14		
    cfb8:	f6 23       	jnz	$-18     	;abs 0xcfa6
    cfba:	cb 43 00 00 	mov.b	#0,	0(r11)	;r3 As==00, 0x0000(r11)
    cfbe:	b0 12 68 c4 	call	#0xc468	
    cfc2:	0f 49       	mov	r9,	r15	
    cfc4:	38 41       	pop	r8		
    cfc6:	39 41       	pop	r9		
    cfc8:	3a 41       	pop	r10		
    cfca:	3b 41       	pop	r11		
    cfcc:	30 41       	ret			
    cfce:	09 93       	tst	r9		
    cfd0:	c9 27       	jz	$-108    	;abs 0xcf64
    cfd2:	7e 42       	mov.b	#8,	r14	;r2 As==11
    cfd4:	3a 40 77 e7 	mov	#-6281,	r10	;#0xe777
    cfd8:	1a 53       	inc	r10		
    cfda:	3f 40 5c 02 	mov	#604,	r15	;#0x025c
    cfde:	b0 12 dc c0 	call	#0xc0dc	
    cfe2:	e2 d3 01 00 	bis.b	#2,	&0x0001	;r3 As==10
    cfe6:	6e 4a       	mov.b	@r10,	r14	
    cfe8:	4e 93       	tst.b	r14		
    cfea:	f6 23       	jnz	$-18     	;abs 0xcfd8
    cfec:	3b 53       	add	#-1,	r11	;r3 As==11
    cfee:	39 53       	add	#-1,	r9	;r3 As==11
    cff0:	b9 3f       	jmp	$-140    	;abs 0xcf64

0000cff2 <serial_option>:
    cff2:	0b 12       	push	r11		
    cff4:	0a 12       	push	r10		
    cff6:	09 12       	push	r9		
    cff8:	08 12       	push	r8		
    cffa:	07 12       	push	r7		
    cffc:	06 12       	push	r6		
    cffe:	07 4f       	mov	r15,	r7	
    d000:	06 4e       	mov	r14,	r6	
    d002:	b0 12 5a c4 	call	#0xc45a	
    d006:	2a 47       	mov	@r7,	r10	
    d008:	6e 4a       	mov.b	@r10,	r14	
    d00a:	0b 43       	clr	r11		
    d00c:	4e 93       	tst.b	r14		
    d00e:	0c 24       	jz	$+26     	;abs 0xd028
    d010:	1b 53       	inc	r11		
    d012:	3f 40 5c 02 	mov	#604,	r15	;#0x025c
    d016:	b0 12 dc c0 	call	#0xc0dc	
    d01a:	e2 d3 01 00 	bis.b	#2,	&0x0001	;r3 As==10
    d01e:	0d 4a       	mov	r10,	r13	
    d020:	0d 5b       	add	r11,	r13	
    d022:	6e 4d       	mov.b	@r13,	r14	
    d024:	4e 93       	tst.b	r14		
    d026:	f4 23       	jnz	$-22     	;abs 0xd010
    d028:	09 43       	clr	r9		
    d02a:	3f 40 42 02 	mov	#578,	r15	;#0x0242
    d02e:	b0 12 4c c1 	call	#0xc14c	
    d032:	7f 90 20 00 	cmp.b	#32,	r15	;#0x0020
    d036:	7d 38       	jl	$+252    	;abs 0xd132
    d038:	7f 90 2b 00 	cmp.b	#43,	r15	;#0x002b
    d03c:	3f 24       	jz	$+128    	;abs 0xd0bc
    d03e:	7f 90 20 00 	cmp.b	#32,	r15	;#0x0020
    d042:	3c 24       	jz	$+122    	;abs 0xd0bc
    d044:	7f 90 2d 00 	cmp.b	#45,	r15	;#0x002d
    d048:	f0 23       	jnz	$-30     	;abs 0xd02a
    d04a:	09 93       	tst	r9		
    d04c:	01 20       	jnz	$+4      	;abs 0xd050
    d04e:	09 46       	mov	r6,	r9	
    d050:	39 53       	add	#-1,	r9	;r3 As==11
    d052:	0b 93       	tst	r11		
    d054:	1e 24       	jz	$+62     	;abs 0xd092
    d056:	0a 4b       	mov	r11,	r10	
    d058:	7e 42       	mov.b	#8,	r14	;r2 As==11
    d05a:	3f 40 5c 02 	mov	#604,	r15	;#0x025c
    d05e:	b0 12 dc c0 	call	#0xc0dc	
    d062:	e2 d3 01 00 	bis.b	#2,	&0x0001	;r3 As==10
    d066:	3a 53       	add	#-1,	r10	;r3 As==11
    d068:	f7 23       	jnz	$-16     	;abs 0xd058
    d06a:	0a 4b       	mov	r11,	r10	
    d06c:	7e 40 20 00 	mov.b	#32,	r14	;#0x0020
    d070:	3f 40 5c 02 	mov	#604,	r15	;#0x025c
    d074:	b0 12 dc c0 	call	#0xc0dc	
    d078:	e2 d3 01 00 	bis.b	#2,	&0x0001	;r3 As==10
    d07c:	3a 53       	add	#-1,	r10	;r3 As==11
    d07e:	f6 23       	jnz	$-18     	;abs 0xd06c
    d080:	7e 42       	mov.b	#8,	r14	;r2 As==11
    d082:	3f 40 5c 02 	mov	#604,	r15	;#0x025c
    d086:	b0 12 dc c0 	call	#0xc0dc	
    d08a:	e2 d3 01 00 	bis.b	#2,	&0x0001	;r3 As==10
    d08e:	3b 53       	add	#-1,	r11	;r3 As==11
    d090:	f7 23       	jnz	$-16     	;abs 0xd080
    d092:	0d 49       	mov	r9,	r13	
    d094:	0d 5d       	rla	r13		
    d096:	0d 57       	add	r7,	r13	
    d098:	2a 4d       	mov	@r13,	r10	
    d09a:	6e 4a       	mov.b	@r10,	r14	
    d09c:	4e 93       	tst.b	r14		
    d09e:	5f 24       	jz	$+192    	;abs 0xd15e
    d0a0:	0b 43       	clr	r11		
    d0a2:	1b 53       	inc	r11		
    d0a4:	3f 40 5c 02 	mov	#604,	r15	;#0x025c
    d0a8:	b0 12 dc c0 	call	#0xc0dc	
    d0ac:	e2 d3 01 00 	bis.b	#2,	&0x0001	;r3 As==10
    d0b0:	0d 4a       	mov	r10,	r13	
    d0b2:	0d 5b       	add	r11,	r13	
    d0b4:	6e 4d       	mov.b	@r13,	r14	
    d0b6:	4e 93       	tst.b	r14		
    d0b8:	f4 23       	jnz	$-22     	;abs 0xd0a2
    d0ba:	b7 3f       	jmp	$-144    	;abs 0xd02a
    d0bc:	19 53       	inc	r9		
    d0be:	09 96       	cmp	r6,	r9	
    d0c0:	35 2c       	jc	$+108    	;abs 0xd12c
    d0c2:	08 49       	mov	r9,	r8	
    d0c4:	08 58       	rla	r8		
    d0c6:	0b 93       	tst	r11		
    d0c8:	1e 24       	jz	$+62     	;abs 0xd106
    d0ca:	0a 4b       	mov	r11,	r10	
    d0cc:	7e 42       	mov.b	#8,	r14	;r2 As==11
    d0ce:	3f 40 5c 02 	mov	#604,	r15	;#0x025c
    d0d2:	b0 12 dc c0 	call	#0xc0dc	
    d0d6:	e2 d3 01 00 	bis.b	#2,	&0x0001	;r3 As==10
    d0da:	3a 53       	add	#-1,	r10	;r3 As==11
    d0dc:	f7 23       	jnz	$-16     	;abs 0xd0cc
    d0de:	0a 4b       	mov	r11,	r10	
    d0e0:	7e 40 20 00 	mov.b	#32,	r14	;#0x0020
    d0e4:	3f 40 5c 02 	mov	#604,	r15	;#0x025c
    d0e8:	b0 12 dc c0 	call	#0xc0dc	
    d0ec:	e2 d3 01 00 	bis.b	#2,	&0x0001	;r3 As==10
    d0f0:	3a 53       	add	#-1,	r10	;r3 As==11
    d0f2:	f6 23       	jnz	$-18     	;abs 0xd0e0
    d0f4:	7e 42       	mov.b	#8,	r14	;r2 As==11
    d0f6:	3f 40 5c 02 	mov	#604,	r15	;#0x025c
    d0fa:	b0 12 dc c0 	call	#0xc0dc	
    d0fe:	e2 d3 01 00 	bis.b	#2,	&0x0001	;r3 As==10
    d102:	3b 53       	add	#-1,	r11	;r3 As==11
    d104:	f7 23       	jnz	$-16     	;abs 0xd0f4
    d106:	08 57       	add	r7,	r8	
    d108:	2a 48       	mov	@r8,	r10	
    d10a:	6e 4a       	mov.b	@r10,	r14	
    d10c:	4e 93       	tst.b	r14		
    d10e:	27 24       	jz	$+80     	;abs 0xd15e
    d110:	0b 43       	clr	r11		
    d112:	1b 53       	inc	r11		
    d114:	3f 40 5c 02 	mov	#604,	r15	;#0x025c
    d118:	b0 12 dc c0 	call	#0xc0dc	
    d11c:	e2 d3 01 00 	bis.b	#2,	&0x0001	;r3 As==10
    d120:	0d 4a       	mov	r10,	r13	
    d122:	0d 5b       	add	r11,	r13	
    d124:	6e 4d       	mov.b	@r13,	r14	
    d126:	4e 93       	tst.b	r14		
    d128:	f4 23       	jnz	$-22     	;abs 0xd112
    d12a:	7f 3f       	jmp	$-256    	;abs 0xd02a
    d12c:	08 43       	clr	r8		
    d12e:	09 43       	clr	r9		
    d130:	ca 3f       	jmp	$-106    	;abs 0xd0c6
    d132:	7e 40 0d 00 	mov.b	#13,	r14	;#0x000d
    d136:	3b 40 58 e7 	mov	#-6312,	r11	;#0xe758
    d13a:	1b 53       	inc	r11		
    d13c:	3f 40 5c 02 	mov	#604,	r15	;#0x025c
    d140:	b0 12 dc c0 	call	#0xc0dc	
    d144:	e2 d3 01 00 	bis.b	#2,	&0x0001	;r3 As==10
    d148:	6e 4b       	mov.b	@r11,	r14	
    d14a:	4e 93       	tst.b	r14		
    d14c:	f6 23       	jnz	$-18     	;abs 0xd13a
    d14e:	0f 49       	mov	r9,	r15	
    d150:	36 41       	pop	r6		
    d152:	37 41       	pop	r7		
    d154:	38 41       	pop	r8		
    d156:	39 41       	pop	r9		
    d158:	3a 41       	pop	r10		
    d15a:	3b 41       	pop	r11		
    d15c:	30 41       	ret			
    d15e:	0b 43       	clr	r11		
    d160:	64 3f       	jmp	$-310    	;abs 0xd02a

0000d162 <_timerA0_isr>:
    d162:	0f 12       	push	r15		
    d164:	0e 12       	push	r14		
    d166:	0d 12       	push	r13		
    d168:	0c 12       	push	r12		
    d16a:	3f 40 c0 03 	mov	#960,	r15	;#0x03c0
    d16e:	b0 12 58 c7 	call	#0xc758	
    d172:	4f 93       	tst.b	r15		
    d174:	02 24       	jz	$+6      	;abs 0xd17a
    d176:	b0 12 aa c4 	call	#0xc4aa	
    d17a:	3c 41       	pop	r12		
    d17c:	3d 41       	pop	r13		
    d17e:	3e 41       	pop	r14		
    d180:	3f 41       	pop	r15		
    d182:	00 13       	reti			

0000d184 <_timerA1_isr>:
    d184:	0f 12       	push	r15		
    d186:	0e 12       	push	r14		
    d188:	0d 12       	push	r13		
    d18a:	0c 12       	push	r12		
    d18c:	3f 40 c4 03 	mov	#964,	r15	;#0x03c4
    d190:	b0 12 58 c7 	call	#0xc758	
    d194:	4f 93       	tst.b	r15		
    d196:	02 24       	jz	$+6      	;abs 0xd19c
    d198:	b0 12 aa c4 	call	#0xc4aa	
    d19c:	3c 41       	pop	r12		
    d19e:	3d 41       	pop	r13		
    d1a0:	3e 41       	pop	r14		
    d1a2:	3f 41       	pop	r15		
    d1a4:	00 13       	reti			

0000d1a6 <timer_allInit>:
    d1a6:	b2 40 10 00 	mov	#16,	&0x0162	;#0x0010
    d1aa:	62 01 
    d1ac:	b2 40 23 f4 	mov	#-3037,	&0x0172	;#0xf423
    d1b0:	72 01 
    d1b2:	b2 40 c0 02 	mov	#704,	&0x0160	;#0x02c0
    d1b6:	60 01 
    d1b8:	c2 43 76 02 	mov.b	#0,	&0x0276	;r3 As==00
    d1bc:	3f 40 c0 03 	mov	#960,	r15	;#0x03c0
    d1c0:	b0 12 4e c7 	call	#0xc74e	
    d1c4:	b2 40 10 00 	mov	#16,	&0x0182	;#0x0010
    d1c8:	82 01 
    d1ca:	b2 40 ff 00 	mov	#255,	&0x0192	;#0x00ff
    d1ce:	92 01 
    d1d0:	b2 40 00 02 	mov	#512,	&0x0180	;#0x0200
    d1d4:	80 01 
    d1d6:	c2 43 77 02 	mov.b	#0,	&0x0277	;r3 As==00
    d1da:	3f 40 c4 03 	mov	#964,	r15	;#0x03c4
    d1de:	b0 12 4e c7 	call	#0xc74e	
    d1e2:	30 41       	ret			

0000d1e4 <timer_on>:
    d1e4:	21 83       	decd	r1		
    d1e6:	3f 90 c0 03 	cmp	#960,	r15	;#0x03c0
    d1ea:	1b 24       	jz	$+56     	;abs 0xd222
    d1ec:	3f 90 c4 03 	cmp	#964,	r15	;#0x03c4
    d1f0:	02 24       	jz	$+6      	;abs 0xd1f6
    d1f2:	21 53       	incd	r1		
    d1f4:	30 41       	ret			
    d1f6:	81 4f 00 00 	mov	r15,	0(r1)	;0x0000(r1)
    d1fa:	b0 12 5a c4 	call	#0xc45a	
    d1fe:	2f 41       	mov	@r1,	r15	
    d200:	b0 12 7e c4 	call	#0xc47e	
    d204:	5f 42 77 02 	mov.b	&0x0277,r15	
    d208:	4e 4f       	mov.b	r15,	r14	
    d20a:	5e 53       	inc.b	r14		
    d20c:	c2 4e 77 02 	mov.b	r14,	&0x0277	
    d210:	4f 93       	tst.b	r15		
    d212:	03 20       	jnz	$+8      	;abs 0xd21a
    d214:	b2 d0 14 00 	bis	#20,	&0x0180	;#0x0014
    d218:	80 01 
    d21a:	b0 12 68 c4 	call	#0xc468	
    d21e:	21 53       	incd	r1		
    d220:	30 41       	ret			
    d222:	81 4f 00 00 	mov	r15,	0(r1)	;0x0000(r1)
    d226:	b0 12 5a c4 	call	#0xc45a	
    d22a:	2f 41       	mov	@r1,	r15	
    d22c:	b0 12 7e c4 	call	#0xc47e	
    d230:	5f 42 76 02 	mov.b	&0x0276,r15	
    d234:	4e 4f       	mov.b	r15,	r14	
    d236:	5e 53       	inc.b	r14		
    d238:	c2 4e 76 02 	mov.b	r14,	&0x0276	
    d23c:	4f 93       	tst.b	r15		
    d23e:	ed 23       	jnz	$-36     	;abs 0xd21a
    d240:	b2 d0 14 00 	bis	#20,	&0x0160	;#0x0014
    d244:	60 01 
    d246:	e9 3f       	jmp	$-44     	;abs 0xd21a

0000d248 <timer_off>:
    d248:	3f 90 c0 03 	cmp	#960,	r15	;#0x03c0
    d24c:	12 24       	jz	$+38     	;abs 0xd272
    d24e:	3f 90 c4 03 	cmp	#964,	r15	;#0x03c4
    d252:	01 24       	jz	$+4      	;abs 0xd256
    d254:	30 41       	ret			
    d256:	b0 12 5a c4 	call	#0xc45a	
    d25a:	5f 42 77 02 	mov.b	&0x0277,r15	
    d25e:	7f 53       	add.b	#-1,	r15	;r3 As==11
    d260:	c2 4f 77 02 	mov.b	r15,	&0x0277	
    d264:	03 20       	jnz	$+8      	;abs 0xd26c
    d266:	b2 f0 ef ff 	and	#-17,	&0x0180	;#0xffef
    d26a:	80 01 
    d26c:	b0 12 68 c4 	call	#0xc468	
    d270:	30 41       	ret			
    d272:	b0 12 5a c4 	call	#0xc45a	
    d276:	5f 42 76 02 	mov.b	&0x0276,r15	
    d27a:	7f 53       	add.b	#-1,	r15	;r3 As==11
    d27c:	c2 4f 76 02 	mov.b	r15,	&0x0276	
    d280:	03 20       	jnz	$+8      	;abs 0xd288
    d282:	b2 f0 ef ff 	and	#-17,	&0x0160	;#0xffef
    d286:	60 01 
    d288:	b0 12 68 c4 	call	#0xc468	
    d28c:	30 41       	ret			

0000d28e <dateTime_init>:
    d28e:	ff 40 3b 00 	mov.b	#59,	0(r15)	;#0x003b, 0x0000(r15)
    d292:	00 00 
    d294:	ff 40 22 00 	mov.b	#34,	1(r15)	;#0x0022, 0x0001(r15)
    d298:	01 00 
    d29a:	ff 40 12 00 	mov.b	#18,	2(r15)	;#0x0012, 0x0002(r15)
    d29e:	02 00 
    d2a0:	ff 40 1d 00 	mov.b	#29,	3(r15)	;#0x001d, 0x0003(r15)
    d2a4:	03 00 
    d2a6:	df 43 04 00 	mov.b	#1,	4(r15)	;r3 As==01, 0x0004(r15)
    d2aa:	ff 40 10 00 	mov.b	#16,	5(r15)	;#0x0010, 0x0005(r15)
    d2ae:	05 00 
    d2b0:	ff 40 15 00 	mov.b	#21,	6(r15)	;#0x0015, 0x0006(r15)
    d2b4:	06 00 
    d2b6:	30 41       	ret			

0000d2b8 <dateTime_checkRanges>:
    d2b8:	0b 12       	push	r11		
    d2ba:	0a 12       	push	r10		
    d2bc:	09 12       	push	r9		
    d2be:	ff 90 3c 00 	cmp.b	#60,	0(r15)	;#0x003c, 0x0000(r15)
    d2c2:	00 00 
    d2c4:	25 2c       	jc	$+76     	;abs 0xd310
    d2c6:	ff 90 3c 00 	cmp.b	#60,	1(r15)	;#0x003c, 0x0001(r15)
    d2ca:	01 00 
    d2cc:	21 2c       	jc	$+68     	;abs 0xd310
    d2ce:	ff 90 18 00 	cmp.b	#24,	2(r15)	;#0x0018, 0x0002(r15)
    d2d2:	02 00 
    d2d4:	1d 2c       	jc	$+60     	;abs 0xd310
    d2d6:	5e 4f 04 00 	mov.b	4(r15),	r14	;0x0004(r15)
    d2da:	7e 90 0d 00 	cmp.b	#13,	r14	;#0x000d
    d2de:	18 2c       	jc	$+50     	;abs 0xd310
    d2e0:	4e 93       	tst.b	r14		
    d2e2:	16 24       	jz	$+46     	;abs 0xd310
    d2e4:	5d 4f 03 00 	mov.b	3(r15),	r13	;0x0003(r15)
    d2e8:	4d 93       	tst.b	r13		
    d2ea:	12 24       	jz	$+38     	;abs 0xd310
    d2ec:	5c 4f 05 00 	mov.b	5(r15),	r12	;0x0005(r15)
    d2f0:	7c 90 63 00 	cmp.b	#99,	r12	;#0x0063
    d2f4:	0d 2c       	jc	$+28     	;abs 0xd310
    d2f6:	5b 4f 06 00 	mov.b	6(r15),	r11	;0x0006(r15)
    d2fa:	4b 93       	tst.b	r11		
    d2fc:	09 24       	jz	$+20     	;abs 0xd310
    d2fe:	49 4d       	mov.b	r13,	r9	
    d300:	6e 93       	cmp.b	#2,	r14	;r3 As==10
    d302:	0b 24       	jz	$+24     	;abs 0xd31a
    d304:	4e 4e       	mov.b	r14,	r14	
    d306:	5e 4e 84 e7 	mov.b	-6268(r14),r14	;0xe784(r14)
    d30a:	5f 43       	mov.b	#1,	r15	;r3 As==01
    d30c:	0e 99       	cmp	r9,	r14	
    d30e:	01 2c       	jc	$+4      	;abs 0xd312
    d310:	4f 43       	clr.b	r15		
    d312:	39 41       	pop	r9		
    d314:	3a 41       	pop	r10		
    d316:	3b 41       	pop	r11		
    d318:	30 41       	ret			
    d31a:	4a 4c       	mov.b	r12,	r10	
    d31c:	4e 4b       	mov.b	r11,	r14	
    d31e:	3e 53       	add	#-1,	r14	;r3 As==11
    d320:	0e 5e       	rla	r14		
    d322:	0e 5e       	rla	r14		
    d324:	0c 4e       	mov	r14,	r12	
    d326:	0c 5c       	rla	r12		
    d328:	0c 5c       	rla	r12		
    d32a:	0e 5c       	add	r12,	r14	
    d32c:	0c 4e       	mov	r14,	r12	
    d32e:	0c 5c       	rla	r12		
    d330:	0c 5c       	rla	r12		
    d332:	0e 5c       	add	r12,	r14	
    d334:	0a 5e       	add	r14,	r10	
    d336:	3a b0 03 00 	bit	#3,	r10	;#0x0003
    d33a:	11 20       	jnz	$+36     	;abs 0xd35e
    d33c:	3e 40 64 00 	mov	#100,	r14	;#0x0064
    d340:	0f 4a       	mov	r10,	r15	
    d342:	b0 12 d4 e5 	call	#0xe5d4	
    d346:	0f 93       	tst	r15		
    d348:	07 24       	jz	$+16     	;abs 0xd358
    d34a:	3e 40 90 01 	mov	#400,	r14	;#0x0190
    d34e:	0f 4a       	mov	r10,	r15	
    d350:	b0 12 d4 e5 	call	#0xe5d4	
    d354:	0f 93       	tst	r15		
    d356:	03 24       	jz	$+8      	;abs 0xd35e
    d358:	3e 40 1d 00 	mov	#29,	r14	;#0x001d
    d35c:	d6 3f       	jmp	$-82     	;abs 0xd30a
    d35e:	3e 40 1c 00 	mov	#28,	r14	;#0x001c
    d362:	d3 3f       	jmp	$-88     	;abs 0xd30a

0000d364 <dateTime_setYear>:
    d364:	0b 12       	push	r11		
    d366:	0b 4f       	mov	r15,	r11	
    d368:	0f 4e       	mov	r14,	r15	
    d36a:	3e 40 64 00 	mov	#100,	r14	;#0x0064
    d36e:	b0 12 c4 e6 	call	#0xe6c4	
    d372:	cb 4f 05 00 	mov.b	r15,	5(r11)	;0x0005(r11)
    d376:	5e 53       	inc.b	r14		
    d378:	cb 4e 06 00 	mov.b	r14,	6(r11)	;0x0006(r11)
    d37c:	3b 41       	pop	r11		
    d37e:	30 41       	ret			

0000d380 <dateTime_getYear>:
    d380:	5c 4f 05 00 	mov.b	5(r15),	r12	;0x0005(r15)
    d384:	5e 4f 06 00 	mov.b	6(r15),	r14	;0x0006(r15)
    d388:	3e 53       	add	#-1,	r14	;r3 As==11
    d38a:	0e 5e       	rla	r14		
    d38c:	0e 5e       	rla	r14		
    d38e:	0d 4e       	mov	r14,	r13	
    d390:	0d 5d       	rla	r13		
    d392:	0d 5d       	rla	r13		
    d394:	0e 5d       	add	r13,	r14	
    d396:	0d 4e       	mov	r14,	r13	
    d398:	0d 5d       	rla	r13		
    d39a:	0d 5d       	rla	r13		
    d39c:	0d 5e       	add	r14,	r13	
    d39e:	0f 4c       	mov	r12,	r15	
    d3a0:	0f 5d       	add	r13,	r15	
    d3a2:	30 41       	ret			

0000d3a4 <dateTime_isLaterOrEqual>:
    d3a4:	5c 4f 06 00 	mov.b	6(r15),	r12	;0x0006(r15)
    d3a8:	5d 4e 06 00 	mov.b	6(r14),	r13	;0x0006(r14)
    d3ac:	4d 9c       	cmp.b	r12,	r13	
    d3ae:	31 28       	jnc	$+100    	;abs 0xd412
    d3b0:	4c 9d       	cmp.b	r13,	r12	
    d3b2:	2c 28       	jnc	$+90     	;abs 0xd40c
    d3b4:	5c 4f 05 00 	mov.b	5(r15),	r12	;0x0005(r15)
    d3b8:	5d 4e 05 00 	mov.b	5(r14),	r13	;0x0005(r14)
    d3bc:	4d 9c       	cmp.b	r12,	r13	
    d3be:	29 28       	jnc	$+84     	;abs 0xd412
    d3c0:	4c 9d       	cmp.b	r13,	r12	
    d3c2:	24 28       	jnc	$+74     	;abs 0xd40c
    d3c4:	5c 4f 04 00 	mov.b	4(r15),	r12	;0x0004(r15)
    d3c8:	5d 4e 04 00 	mov.b	4(r14),	r13	;0x0004(r14)
    d3cc:	4d 9c       	cmp.b	r12,	r13	
    d3ce:	21 28       	jnc	$+68     	;abs 0xd412
    d3d0:	4c 9d       	cmp.b	r13,	r12	
    d3d2:	1c 28       	jnc	$+58     	;abs 0xd40c
    d3d4:	5c 4f 03 00 	mov.b	3(r15),	r12	;0x0003(r15)
    d3d8:	5d 4e 03 00 	mov.b	3(r14),	r13	;0x0003(r14)
    d3dc:	4d 9c       	cmp.b	r12,	r13	
    d3de:	19 28       	jnc	$+52     	;abs 0xd412
    d3e0:	4c 9d       	cmp.b	r13,	r12	
    d3e2:	14 28       	jnc	$+42     	;abs 0xd40c
    d3e4:	5c 4f 02 00 	mov.b	2(r15),	r12	;0x0002(r15)
    d3e8:	5d 4e 02 00 	mov.b	2(r14),	r13	;0x0002(r14)
    d3ec:	4d 9c       	cmp.b	r12,	r13	
    d3ee:	11 28       	jnc	$+36     	;abs 0xd412
    d3f0:	4c 9d       	cmp.b	r13,	r12	
    d3f2:	0c 28       	jnc	$+26     	;abs 0xd40c
    d3f4:	5c 4f 01 00 	mov.b	1(r15),	r12	;0x0001(r15)
    d3f8:	5d 4e 01 00 	mov.b	1(r14),	r13	;0x0001(r14)
    d3fc:	4d 9c       	cmp.b	r12,	r13	
    d3fe:	09 28       	jnc	$+20     	;abs 0xd412
    d400:	4c 9d       	cmp.b	r13,	r12	
    d402:	04 28       	jnc	$+10     	;abs 0xd40c
    d404:	5d 43       	mov.b	#1,	r13	;r3 As==01
    d406:	ef 9e 00 00 	cmp.b	@r14,	0(r15)	;0x0000(r15)
    d40a:	04 2c       	jc	$+10     	;abs 0xd414
    d40c:	4d 43       	clr.b	r13		
    d40e:	4f 4d       	mov.b	r13,	r15	
    d410:	30 41       	ret			
    d412:	5d 43       	mov.b	#1,	r13	;r3 As==01
    d414:	4f 4d       	mov.b	r13,	r15	
    d416:	30 41       	ret			

0000d418 <dateTime_daysInMonth>:
    d418:	0b 12       	push	r11		
    d41a:	5e 4f 04 00 	mov.b	4(r15),	r14	;0x0004(r15)
    d41e:	6e 93       	cmp.b	#2,	r14	;r3 As==10
    d420:	05 24       	jz	$+12     	;abs 0xd42c
    d422:	4e 4e       	mov.b	r14,	r14	
    d424:	5f 4e 84 e7 	mov.b	-6268(r14),r15	;0xe784(r14)
    d428:	3b 41       	pop	r11		
    d42a:	30 41       	ret			
    d42c:	5b 4f 05 00 	mov.b	5(r15),	r11	;0x0005(r15)
    d430:	5e 4f 06 00 	mov.b	6(r15),	r14	;0x0006(r15)
    d434:	3e 53       	add	#-1,	r14	;r3 As==11
    d436:	0e 5e       	rla	r14		
    d438:	0e 5e       	rla	r14		
    d43a:	0d 4e       	mov	r14,	r13	
    d43c:	0d 5d       	rla	r13		
    d43e:	0d 5d       	rla	r13		
    d440:	0e 5d       	add	r13,	r14	
    d442:	0d 4e       	mov	r14,	r13	
    d444:	0d 5d       	rla	r13		
    d446:	0d 5d       	rla	r13		
    d448:	0d 5e       	add	r14,	r13	
    d44a:	0b 5d       	add	r13,	r11	
    d44c:	3b b0 03 00 	bit	#3,	r11	;#0x0003
    d450:	0e 20       	jnz	$+30     	;abs 0xd46e
    d452:	3e 40 64 00 	mov	#100,	r14	;#0x0064
    d456:	0f 4b       	mov	r11,	r15	
    d458:	b0 12 d4 e5 	call	#0xe5d4	
    d45c:	0f 93       	tst	r15		
    d45e:	0b 24       	jz	$+24     	;abs 0xd476
    d460:	3e 40 90 01 	mov	#400,	r14	;#0x0190
    d464:	0f 4b       	mov	r11,	r15	
    d466:	b0 12 d4 e5 	call	#0xe5d4	
    d46a:	0f 93       	tst	r15		
    d46c:	04 20       	jnz	$+10     	;abs 0xd476
    d46e:	3f 40 1c 00 	mov	#28,	r15	;#0x001c
    d472:	3b 41       	pop	r11		
    d474:	30 41       	ret			
    d476:	3f 40 1d 00 	mov	#29,	r15	;#0x001d
    d47a:	3b 41       	pop	r11		
    d47c:	30 41       	ret			

0000d47e <dateTime_calcWeekDay>:
    d47e:	0b 12       	push	r11		
    d480:	0a 12       	push	r10		
    d482:	09 12       	push	r9		
    d484:	08 12       	push	r8		
    d486:	07 12       	push	r7		
    d488:	06 12       	push	r6		
    d48a:	06 4f       	mov	r15,	r6	
    d48c:	57 4f 05 00 	mov.b	5(r15),	r7	;0x0005(r15)
    d490:	5e 4f 06 00 	mov.b	6(r15),	r14	;0x0006(r15)
    d494:	3e 53       	add	#-1,	r14	;r3 As==11
    d496:	0e 5e       	rla	r14		
    d498:	0e 5e       	rla	r14		
    d49a:	0d 4e       	mov	r14,	r13	
    d49c:	0d 5d       	rla	r13		
    d49e:	0d 5d       	rla	r13		
    d4a0:	0e 5d       	add	r13,	r14	
    d4a2:	0d 4e       	mov	r14,	r13	
    d4a4:	0d 5d       	rla	r13		
    d4a6:	0d 5d       	rla	r13		
    d4a8:	0d 5e       	add	r14,	r13	
    d4aa:	07 5d       	add	r13,	r7	
    d4ac:	0c 47       	mov	r7,	r12	
    d4ae:	0d 43       	clr	r13		
    d4b0:	0e 4c       	mov	r12,	r14	
    d4b2:	0f 4d       	mov	r13,	r15	
    d4b4:	0e 5e       	rla	r14		
    d4b6:	0f 6f       	rlc	r15		
    d4b8:	0e 5e       	rla	r14		
    d4ba:	0f 6f       	rlc	r15		
    d4bc:	0e 5e       	rla	r14		
    d4be:	0f 6f       	rlc	r15		
    d4c0:	0a 4e       	mov	r14,	r10	
    d4c2:	0b 4f       	mov	r15,	r11	
    d4c4:	0a 5a       	rla	r10		
    d4c6:	0b 6b       	rlc	r11		
    d4c8:	0a 5a       	rla	r10		
    d4ca:	0b 6b       	rlc	r11		
    d4cc:	0a 5a       	rla	r10		
    d4ce:	0b 6b       	rlc	r11		
    d4d0:	0a 5e       	add	r14,	r10	
    d4d2:	0b 6f       	addc	r15,	r11	
    d4d4:	0a 5c       	add	r12,	r10	
    d4d6:	0b 6d       	addc	r13,	r11	
    d4d8:	0c 4a       	mov	r10,	r12	
    d4da:	0d 4b       	mov	r11,	r13	
    d4dc:	0c 5c       	rla	r12		
    d4de:	0d 6d       	rlc	r13		
    d4e0:	0c 5c       	rla	r12		
    d4e2:	0d 6d       	rlc	r13		
    d4e4:	0a 5c       	add	r12,	r10	
    d4e6:	0b 6d       	addc	r13,	r11	
    d4e8:	0d 47       	mov	r7,	r13	
    d4ea:	12 c3       	clrc			
    d4ec:	0d 10       	rrc	r13		
    d4ee:	12 c3       	clrc			
    d4f0:	0d 10       	rrc	r13		
    d4f2:	0e 4d       	mov	r13,	r14	
    d4f4:	0f 43       	clr	r15		
    d4f6:	0a 5e       	add	r14,	r10	
    d4f8:	0b 6f       	addc	r15,	r11	
    d4fa:	3e 40 90 01 	mov	#400,	r14	;#0x0190
    d4fe:	0f 47       	mov	r7,	r15	
    d500:	b0 12 ba e5 	call	#0xe5ba	
    d504:	0c 4f       	mov	r15,	r12	
    d506:	0d 43       	clr	r13		
    d508:	0a 5c       	add	r12,	r10	
    d50a:	0b 6d       	addc	r13,	r11	
    d50c:	3e 40 64 00 	mov	#100,	r14	;#0x0064
    d510:	0f 47       	mov	r7,	r15	
    d512:	b0 12 ba e5 	call	#0xe5ba	
    d516:	0c 4f       	mov	r15,	r12	
    d518:	0d 43       	clr	r13		
    d51a:	0a 8c       	sub	r12,	r10	
    d51c:	0b 7d       	subc	r13,	r11	
    d51e:	5c 46 04 00 	mov.b	4(r6),	r12	;0x0004(r6)
    d522:	6c 93       	cmp.b	#2,	r12	;r3 As==10
    d524:	10 28       	jnc	$+34     	;abs 0xd546
    d526:	5e 43       	mov.b	#1,	r14	;r3 As==01
    d528:	4d 4e       	mov.b	r14,	r13	
    d52a:	58 4d 84 e7 	mov.b	-6268(r13),r8	;0xe784(r13)
    d52e:	09 43       	clr	r9		
    d530:	0a 58       	add	r8,	r10	
    d532:	0b 69       	addc	r9,	r11	
    d534:	5e 53       	inc.b	r14		
    d536:	4e 9c       	cmp.b	r12,	r14	
    d538:	f7 2b       	jnc	$-16     	;abs 0xd528
    d53a:	7c 90 03 00 	cmp.b	#3,	r12	;#0x0003
    d53e:	03 28       	jnc	$+8      	;abs 0xd546
    d540:	37 b0 03 00 	bit	#3,	r7	;#0x0003
    d544:	15 24       	jz	$+44     	;abs 0xd570
    d546:	5e 46 03 00 	mov.b	3(r6),	r14	;0x0003(r6)
    d54a:	0f 43       	clr	r15		
    d54c:	2e 52       	add	#4,	r14	;r2 As==10
    d54e:	0f 63       	adc	r15		
    d550:	3c 40 07 00 	mov	#7,	r12	;#0x0007
    d554:	0d 43       	clr	r13		
    d556:	0e 5a       	add	r10,	r14	
    d558:	0f 6b       	addc	r11,	r15	
    d55a:	b0 12 12 e6 	call	#0xe612	
    d55e:	4f 4e       	mov.b	r14,	r15	
    d560:	5f 53       	inc.b	r15		
    d562:	36 41       	pop	r6		
    d564:	37 41       	pop	r7		
    d566:	38 41       	pop	r8		
    d568:	39 41       	pop	r9		
    d56a:	3a 41       	pop	r10		
    d56c:	3b 41       	pop	r11		
    d56e:	30 41       	ret			
    d570:	3e 40 64 00 	mov	#100,	r14	;#0x0064
    d574:	0f 47       	mov	r7,	r15	
    d576:	b0 12 d4 e5 	call	#0xe5d4	
    d57a:	0f 93       	tst	r15		
    d57c:	07 24       	jz	$+16     	;abs 0xd58c
    d57e:	3e 40 90 01 	mov	#400,	r14	;#0x0190
    d582:	0f 47       	mov	r7,	r15	
    d584:	b0 12 d4 e5 	call	#0xe5d4	
    d588:	0f 93       	tst	r15		
    d58a:	dd 27       	jz	$-68     	;abs 0xd546
    d58c:	1a 53       	inc	r10		
    d58e:	0b 63       	adc	r11		
    d590:	da 3f       	jmp	$-74     	;abs 0xd546

0000d592 <dateTime_calcSeason>:
    d592:	0b 12       	push	r11		
    d594:	5d 4f 04 00 	mov.b	4(r15),	r13	;0x0004(r15)
    d598:	4c 4d       	mov.b	r13,	r12	
    d59a:	7c 50 fd ff 	add.b	#-3,	r12	;#0xfffd
    d59e:	7c 92       	cmp.b	#8,	r12	;r2 As==11
    d5a0:	2a 2c       	jc	$+86     	;abs 0xd5f6
    d5a2:	4c 4d       	mov.b	r13,	r12	
    d5a4:	6c 82       	sub.b	#4,	r12	;r2 As==10
    d5a6:	7c 90 06 00 	cmp.b	#6,	r12	;#0x0006
    d5aa:	03 2c       	jc	$+8      	;abs 0xd5b2
    d5ac:	6f 43       	mov.b	#2,	r15	;r3 As==10
    d5ae:	3b 41       	pop	r11		
    d5b0:	30 41       	ret			
    d5b2:	5c 4f 03 00 	mov.b	3(r15),	r12	;0x0003(r15)
    d5b6:	7d 90 03 00 	cmp.b	#3,	r13	;#0x0003
    d5ba:	17 24       	jz	$+48     	;abs 0xd5ea
    d5bc:	3d 40 20 00 	mov	#32,	r13	;#0x0020
    d5c0:	0d 8c       	sub	r12,	r13	
    d5c2:	3d 90 07 00 	cmp	#7,	r13	;#0x0007
    d5c6:	f2 2f       	jc	$-26     	;abs 0xd5ac
    d5c8:	4b 4e       	mov.b	r14,	r11	
    d5ca:	3c 40 07 00 	mov	#7,	r12	;#0x0007
    d5ce:	0c 8b       	sub	r11,	r12	
    d5d0:	0d 9c       	cmp	r12,	r13	
    d5d2:	ec 2b       	jnc	$-38     	;abs 0xd5ac
    d5d4:	7e 90 07 00 	cmp.b	#7,	r14	;#0x0007
    d5d8:	e9 23       	jnz	$-44     	;abs 0xd5ac
    d5da:	5e 4f 02 00 	mov.b	2(r15),	r14	;0x0002(r15)
    d5de:	6e 93       	cmp.b	#2,	r14	;r3 As==10
    d5e0:	e5 2b       	jnc	$-52     	;abs 0xd5ac
    d5e2:	5f 43       	mov.b	#1,	r15	;r3 As==01
    d5e4:	e4 23       	jnz	$-54     	;abs 0xd5ae
    d5e6:	4f 43       	clr.b	r15		
    d5e8:	e2 3f       	jmp	$-58     	;abs 0xd5ae
    d5ea:	3d 40 20 00 	mov	#32,	r13	;#0x0020
    d5ee:	0d 8c       	sub	r12,	r13	
    d5f0:	3d 90 07 00 	cmp	#7,	r13	;#0x0007
    d5f4:	03 28       	jnc	$+8      	;abs 0xd5fc
    d5f6:	5f 43       	mov.b	#1,	r15	;r3 As==01
    d5f8:	3b 41       	pop	r11		
    d5fa:	30 41       	ret			
    d5fc:	4b 4e       	mov.b	r14,	r11	
    d5fe:	3c 40 07 00 	mov	#7,	r12	;#0x0007
    d602:	0c 8b       	sub	r11,	r12	
    d604:	0d 9c       	cmp	r12,	r13	
    d606:	d2 2b       	jnc	$-90     	;abs 0xd5ac
    d608:	7e 90 07 00 	cmp.b	#7,	r14	;#0x0007
    d60c:	f4 23       	jnz	$-22     	;abs 0xd5f6
    d60e:	ef 93 02 00 	cmp.b	#2,	2(r15)	;r3 As==10, 0x0002(r15)
    d612:	cc 2f       	jc	$-102    	;abs 0xd5ac
    d614:	5f 43       	mov.b	#1,	r15	;r3 As==01
    d616:	f0 3f       	jmp	$-30     	;abs 0xd5f8

0000d618 <intervalometer_printSpeeds>:
    d618:	0b 12       	push	r11		
    d61a:	0a 12       	push	r10		
    d61c:	09 12       	push	r9		
    d61e:	3a 40 6a e9 	mov	#-5782,	r10	;#0xe96a
    d622:	1b 43       	mov	#1,	r11	;r3 As==01
    d624:	14 3c       	jmp	$+42     	;abs 0xd64e
    d626:	7f 40 20 00 	mov.b	#32,	r15	;#0x0020
    d62a:	b0 12 ee cb 	call	#0xcbee	
    d62e:	4f 49       	mov.b	r9,	r15	
    d630:	b0 12 3a ce 	call	#0xce3a	
    d634:	3f 40 95 e7 	mov	#-6251,	r15	;#0xe795
    d638:	b0 12 7c cc 	call	#0xcc7c	
    d63c:	3f 4a       	mov	@r10+,	r15	
    d63e:	b0 12 7c cc 	call	#0xcc7c	
    d642:	b0 12 0c cc 	call	#0xcc0c	
    d646:	1b 53       	inc	r11		
    d648:	3b 90 1f 00 	cmp	#31,	r11	;#0x001f
    d64c:	09 24       	jz	$+20     	;abs 0xd660
    d64e:	49 4b       	mov.b	r11,	r9	
    d650:	79 90 0a 00 	cmp.b	#10,	r9	;#0x000a
    d654:	e8 2f       	jc	$-46     	;abs 0xd626
    d656:	3f 40 92 e7 	mov	#-6254,	r15	;#0xe792
    d65a:	b0 12 7c cc 	call	#0xcc7c	
    d65e:	e7 3f       	jmp	$-48     	;abs 0xd62e
    d660:	39 41       	pop	r9		
    d662:	3a 41       	pop	r10		
    d664:	3b 41       	pop	r11		
    d666:	30 41       	ret			

0000d668 <intervalometer_isRunning>:
    d668:	5e 42 78 02 	mov.b	&0x0278,r14	
    d66c:	5f 43       	mov.b	#1,	r15	;r3 As==01
    d66e:	4e 93       	tst.b	r14		
    d670:	01 20       	jnz	$+4      	;abs 0xd674
    d672:	4f 43       	clr.b	r15		
    d674:	30 41       	ret			

0000d676 <interval_init>:
    d676:	82 4f 7a 02 	mov	r15,	&0x027a	
    d67a:	c2 43 78 02 	mov.b	#0,	&0x0278	;r3 As==00
    d67e:	3f 40 7c 02 	mov	#636,	r15	;#0x027c
    d682:	b0 12 e4 c4 	call	#0xc4e4	
    d686:	f2 f0 fe ff 	and.b	#-2,	&0x0021	;#0xfffe
    d68a:	21 00 
    d68c:	f2 f0 bf ff 	and.b	#-65,	&0x0021	;#0xffbf
    d690:	21 00 
    d692:	30 41       	ret			

0000d694 <interval_run>:
    d694:	b0 12 5a c4 	call	#0xc45a	
    d698:	5f 42 78 02 	mov.b	&0x0278,r15	
    d69c:	4f 93       	tst.b	r15		
    d69e:	07 24       	jz	$+16     	;abs 0xd6ae
    d6a0:	3f 40 98 e7 	mov	#-6248,	r15	;#0xe798
    d6a4:	b0 12 36 cc 	call	#0xcc36	
    d6a8:	b0 12 68 c4 	call	#0xc468	
    d6ac:	30 41       	ret			
    d6ae:	d2 43 78 02 	mov.b	#1,	&0x0278	;r3 As==01
    d6b2:	3f 40 7c 02 	mov	#636,	r15	;#0x027c
    d6b6:	b0 12 40 c5 	call	#0xc540	
    d6ba:	b0 12 68 c4 	call	#0xc468	
    d6be:	30 41       	ret			

0000d6c0 <interval_hdr>:
    d6c0:	b0 12 5a c4 	call	#0xc45a	
    d6c4:	5f 42 78 02 	mov.b	&0x0278,r15	
    d6c8:	4f 93       	tst.b	r15		
    d6ca:	07 24       	jz	$+16     	;abs 0xd6da
    d6cc:	3f 40 98 e7 	mov	#-6248,	r15	;#0xe798
    d6d0:	b0 12 36 cc 	call	#0xcc36	
    d6d4:	b0 12 68 c4 	call	#0xc468	
    d6d8:	30 41       	ret			
    d6da:	e2 43 78 02 	mov.b	#2,	&0x0278	;r3 As==10
    d6de:	3f 40 7c 02 	mov	#636,	r15	;#0x027c
    d6e2:	b0 12 40 c5 	call	#0xc540	
    d6e6:	b0 12 68 c4 	call	#0xc468	
    d6ea:	30 41       	ret			

0000d6ec <interval_stop>:
    d6ec:	b0 12 5a c4 	call	#0xc45a	
    d6f0:	5f 42 78 02 	mov.b	&0x0278,r15	
    d6f4:	4f 93       	tst.b	r15		
    d6f6:	1a 24       	jz	$+54     	;abs 0xd72c
    d6f8:	f2 40 03 00 	mov.b	#3,	&0x0278	;#0x0003
    d6fc:	78 02 
    d6fe:	1e 42 7a 02 	mov	&0x027a,r14	
    d702:	3f 40 c4 03 	mov	#964,	r15	;#0x03c4
    d706:	b0 12 48 c9 	call	#0xc948	
    d70a:	5f 42 78 02 	mov.b	&0x0278,r15	
    d70e:	7f 90 03 00 	cmp.b	#3,	r15	;#0x0003
    d712:	09 20       	jnz	$+20     	;abs 0xd726
    d714:	3f 40 7c 02 	mov	#636,	r15	;#0x027c
    d718:	b0 12 ea c4 	call	#0xc4ea	
    d71c:	5f 42 78 02 	mov.b	&0x0278,r15	
    d720:	7f 90 03 00 	cmp.b	#3,	r15	;#0x0003
    d724:	f7 27       	jz	$-16     	;abs 0xd714
    d726:	b0 12 68 c4 	call	#0xc468	
    d72a:	30 41       	ret			
    d72c:	3f 40 a9 e7 	mov	#-6231,	r15	;#0xe7a9
    d730:	b0 12 36 cc 	call	#0xcc36	
    d734:	b0 12 68 c4 	call	#0xc468	
    d738:	30 41       	ret			

0000d73a <intervalometer_task>:
    d73a:	b0 12 5a c4 	call	#0xc45a	
    d73e:	c2 43 78 02 	mov.b	#0,	&0x0278	;r3 As==00
    d742:	3f 40 7c 02 	mov	#636,	r15	;#0x027c
    d746:	b0 12 40 c5 	call	#0xc540	
    d74a:	5f 42 78 02 	mov.b	&0x0278,r15	
    d74e:	4f 93       	tst.b	r15		
    d750:	08 20       	jnz	$+18     	;abs 0xd762
    d752:	3f 40 7c 02 	mov	#636,	r15	;#0x027c
    d756:	b0 12 ea c4 	call	#0xc4ea	
    d75a:	5f 42 78 02 	mov.b	&0x0278,r15	
    d75e:	4f 93       	tst.b	r15		
    d760:	f8 27       	jz	$-14     	;abs 0xd752
    d762:	3f 40 c4 03 	mov	#964,	r15	;#0x03c4
    d766:	b0 12 e4 d1 	call	#0xd1e4	
    d76a:	1f 42 02 02 	mov	&0x0202,r15	
    d76e:	3f 90 03 00 	cmp	#3,	r15	;#0x0003
    d772:	1a 28       	jnc	$+54     	;abs 0xd7a8
    d774:	0e 4f       	mov	r15,	r14	
    d776:	0e 5e       	rla	r14		
    d778:	0e 5f       	add	r15,	r14	
    d77a:	0f 4e       	mov	r14,	r15	
    d77c:	0f 5f       	rla	r15		
    d77e:	0f 5f       	rla	r15		
    d780:	0e 5f       	add	r15,	r14	
    d782:	0e 5e       	rla	r14		
    d784:	0e 5e       	rla	r14		
    d786:	0f 4e       	mov	r14,	r15	
    d788:	0f 5f       	rla	r15		
    d78a:	0f 5f       	rla	r15		
    d78c:	0f 5f       	rla	r15		
    d78e:	0f 5f       	rla	r15		
    d790:	0f 5f       	rla	r15		
    d792:	0f 5f       	rla	r15		
    d794:	0f 5e       	add	r14,	r15	
    d796:	3f 90 b4 2d 	cmp	#11700,	r15	;#0x2db4
    d79a:	1b 24       	jz	$+56     	;abs 0xd7d2
    d79c:	0b 4f       	mov	r15,	r11	
    d79e:	3b 50 4c d2 	add	#-11700,r11	;#0xd24c
    d7a2:	38 40 b4 2d 	mov	#11700,	r8	;#0x2db4
    d7a6:	1b 3c       	jmp	$+56     	;abs 0xd7de
    d7a8:	0e 4f       	mov	r15,	r14	
    d7aa:	0e 5e       	rla	r14		
    d7ac:	0e 5f       	add	r15,	r14	
    d7ae:	0f 4e       	mov	r14,	r15	
    d7b0:	0f 5f       	rla	r15		
    d7b2:	0f 5f       	rla	r15		
    d7b4:	0e 5f       	add	r15,	r14	
    d7b6:	0e 5e       	rla	r14		
    d7b8:	0e 5e       	rla	r14		
    d7ba:	0f 4e       	mov	r14,	r15	
    d7bc:	0f 5f       	rla	r15		
    d7be:	0f 5f       	rla	r15		
    d7c0:	0f 5f       	rla	r15		
    d7c2:	0f 5f       	rla	r15		
    d7c4:	0f 5f       	rla	r15		
    d7c6:	0f 5f       	rla	r15		
    d7c8:	08 4e       	mov	r14,	r8	
    d7ca:	08 5f       	add	r15,	r8	
    d7cc:	06 24       	jz	$+14     	;abs 0xd7da
    d7ce:	0b 43       	clr	r11		
    d7d0:	06 3c       	jmp	$+14     	;abs 0xd7de
    d7d2:	38 40 b4 2d 	mov	#11700,	r8	;#0x2db4
    d7d6:	1b 43       	mov	#1,	r11	;r3 As==01
    d7d8:	02 3c       	jmp	$+6      	;abs 0xd7de
    d7da:	18 43       	mov	#1,	r8	;r3 As==01
    d7dc:	0b 43       	clr	r11		
    d7de:	5f 42 78 02 	mov.b	&0x0278,r15	
    d7e2:	7f 90 03 00 	cmp.b	#3,	r15	;#0x0003
    d7e6:	ab 27       	jz	$-168    	;abs 0xd73e
    d7e8:	1d 42 04 02 	mov	&0x0204,r13	
    d7ec:	3d 90 03 00 	cmp	#3,	r13	;#0x0003
    d7f0:	1a 28       	jnc	$+54     	;abs 0xd826
    d7f2:	0c 4d       	mov	r13,	r12	
    d7f4:	0c 5c       	rla	r12		
    d7f6:	0c 5d       	add	r13,	r12	
    d7f8:	0d 4c       	mov	r12,	r13	
    d7fa:	0d 5d       	rla	r13		
    d7fc:	0d 5d       	rla	r13		
    d7fe:	0c 5d       	add	r13,	r12	
    d800:	0c 5c       	rla	r12		
    d802:	0c 5c       	rla	r12		
    d804:	0d 4c       	mov	r12,	r13	
    d806:	0d 5d       	rla	r13		
    d808:	0d 5d       	rla	r13		
    d80a:	0d 5d       	rla	r13		
    d80c:	0d 5d       	rla	r13		
    d80e:	0d 5d       	rla	r13		
    d810:	0d 5d       	rla	r13		
    d812:	0d 5c       	add	r12,	r13	
    d814:	3d 90 b4 2d 	cmp	#11700,	r13	;#0x2db4
    d818:	1b 24       	jz	$+56     	;abs 0xd850
    d81a:	0a 4d       	mov	r13,	r10	
    d81c:	3a 50 4c d2 	add	#-11700,r10	;#0xd24c
    d820:	39 40 b4 2d 	mov	#11700,	r9	;#0x2db4
    d824:	1b 3c       	jmp	$+56     	;abs 0xd85c
    d826:	0c 4d       	mov	r13,	r12	
    d828:	0c 5c       	rla	r12		
    d82a:	0c 5d       	add	r13,	r12	
    d82c:	0d 4c       	mov	r12,	r13	
    d82e:	0d 5d       	rla	r13		
    d830:	0d 5d       	rla	r13		
    d832:	0c 5d       	add	r13,	r12	
    d834:	0c 5c       	rla	r12		
    d836:	0c 5c       	rla	r12		
    d838:	0d 4c       	mov	r12,	r13	
    d83a:	0d 5d       	rla	r13		
    d83c:	0d 5d       	rla	r13		
    d83e:	0d 5d       	rla	r13		
    d840:	0d 5d       	rla	r13		
    d842:	0d 5d       	rla	r13		
    d844:	0d 5d       	rla	r13		
    d846:	09 4c       	mov	r12,	r9	
    d848:	09 5d       	add	r13,	r9	
    d84a:	06 24       	jz	$+14     	;abs 0xd858
    d84c:	0a 43       	clr	r10		
    d84e:	06 3c       	jmp	$+14     	;abs 0xd85c
    d850:	39 40 b4 2d 	mov	#11700,	r9	;#0x2db4
    d854:	1a 43       	mov	#1,	r10	;r3 As==01
    d856:	02 3c       	jmp	$+6      	;abs 0xd85c
    d858:	19 43       	mov	#1,	r9	;r3 As==01
    d85a:	0a 43       	clr	r10		
    d85c:	5f 42 78 02 	mov.b	&0x0278,r15	
    d860:	7f 90 03 00 	cmp.b	#3,	r15	;#0x0003
    d864:	6c 27       	jz	$-294    	;abs 0xd73e
    d866:	0b 93       	tst	r11		
    d868:	05 24       	jz	$+12     	;abs 0xd874
    d86a:	0e 4b       	mov	r11,	r14	
    d86c:	3f 40 c4 03 	mov	#964,	r15	;#0x03c4
    d870:	b0 12 4c c8 	call	#0xc84c	
    d874:	5f 42 78 02 	mov.b	&0x0278,r15	
    d878:	7f 90 03 00 	cmp.b	#3,	r15	;#0x0003
    d87c:	60 27       	jz	$-318    	;abs 0xd73e
    d87e:	f2 d0 40 00 	bis.b	#64,	&0x0021	;#0x0040
    d882:	21 00 
    d884:	0e 48       	mov	r8,	r14	
    d886:	3f 40 c4 03 	mov	#964,	r15	;#0x03c4
    d88a:	b0 12 4c c8 	call	#0xc84c	
    d88e:	f2 f0 bf ff 	and.b	#-65,	&0x0021	;#0xffbf
    d892:	21 00 
    d894:	5f 42 78 02 	mov.b	&0x0278,r15	
    d898:	7f 90 03 00 	cmp.b	#3,	r15	;#0x0003
    d89c:	50 27       	jz	$-350    	;abs 0xd73e
    d89e:	5f 42 78 02 	mov.b	&0x0278,r15	
    d8a2:	5f 93       	cmp.b	#1,	r15	;r3 As==01
    d8a4:	72 20       	jnz	$+230    	;abs 0xd98a
    d8a6:	d2 d3 21 00 	bis.b	#1,	&0x0021	;r3 As==01
    d8aa:	18 42 06 02 	mov	&0x0206,r8	
    d8ae:	0f 48       	mov	r8,	r15	
    d8b0:	0f 5f       	rla	r15		
    d8b2:	08 5f       	add	r15,	r8	
    d8b4:	0f 48       	mov	r8,	r15	
    d8b6:	0f 5f       	rla	r15		
    d8b8:	0f 5f       	rla	r15		
    d8ba:	08 5f       	add	r15,	r8	
    d8bc:	08 58       	rla	r8		
    d8be:	08 58       	rla	r8		
    d8c0:	0f 48       	mov	r8,	r15	
    d8c2:	0f 5f       	rla	r15		
    d8c4:	0f 5f       	rla	r15		
    d8c6:	0f 5f       	rla	r15		
    d8c8:	0f 5f       	rla	r15		
    d8ca:	0f 5f       	rla	r15		
    d8cc:	0f 5f       	rla	r15		
    d8ce:	08 5f       	add	r15,	r8	
    d8d0:	01 20       	jnz	$+4      	;abs 0xd8d4
    d8d2:	18 43       	mov	#1,	r8	;r3 As==01
    d8d4:	0a 93       	tst	r10		
    d8d6:	2a 20       	jnz	$+86     	;abs 0xd92c
    d8d8:	0b 43       	clr	r11		
    d8da:	0e 48       	mov	r8,	r14	
    d8dc:	3f 40 c4 03 	mov	#964,	r15	;#0x03c4
    d8e0:	b0 12 4c c8 	call	#0xc84c	
    d8e4:	f2 f0 fe ff 	and.b	#-2,	&0x0021	;#0xfffe
    d8e8:	21 00 
    d8ea:	5f 42 78 02 	mov.b	&0x0278,r15	
    d8ee:	7f 90 03 00 	cmp.b	#3,	r15	;#0x0003
    d8f2:	b8 24       	jz	$+370    	;abs 0xda64
    d8f4:	1b 53       	inc	r11		
    d8f6:	1b 92 08 02 	cmp	&0x0208,r11	
    d8fa:	b4 2c       	jc	$+362    	;abs 0xda64
    d8fc:	5f 42 78 02 	mov.b	&0x0278,r15	
    d900:	7f 90 03 00 	cmp.b	#3,	r15	;#0x0003
    d904:	af 24       	jz	$+352    	;abs 0xda64
    d906:	f2 d0 40 00 	bis.b	#64,	&0x0021	;#0x0040
    d90a:	21 00 
    d90c:	0e 49       	mov	r9,	r14	
    d90e:	3f 40 c4 03 	mov	#964,	r15	;#0x03c4
    d912:	b0 12 4c c8 	call	#0xc84c	
    d916:	f2 f0 bf ff 	and.b	#-65,	&0x0021	;#0xffbf
    d91a:	21 00 
    d91c:	5f 42 78 02 	mov.b	&0x0278,r15	
    d920:	7f 90 03 00 	cmp.b	#3,	r15	;#0x0003
    d924:	9f 24       	jz	$+320    	;abs 0xda64
    d926:	d2 d3 21 00 	bis.b	#1,	&0x0021	;r3 As==01
    d92a:	d7 3f       	jmp	$-80     	;abs 0xd8da
    d92c:	0b 43       	clr	r11		
    d92e:	0e 48       	mov	r8,	r14	
    d930:	3f 40 c4 03 	mov	#964,	r15	;#0x03c4
    d934:	b0 12 4c c8 	call	#0xc84c	
    d938:	f2 f0 fe ff 	and.b	#-2,	&0x0021	;#0xfffe
    d93c:	21 00 
    d93e:	5f 42 78 02 	mov.b	&0x0278,r15	
    d942:	7f 90 03 00 	cmp.b	#3,	r15	;#0x0003
    d946:	8e 24       	jz	$+286    	;abs 0xda64
    d948:	1b 53       	inc	r11		
    d94a:	1b 92 08 02 	cmp	&0x0208,r11	
    d94e:	8a 2c       	jc	$+278    	;abs 0xda64
    d950:	0e 4a       	mov	r10,	r14	
    d952:	3f 40 c4 03 	mov	#964,	r15	;#0x03c4
    d956:	b0 12 c6 c7 	call	#0xc7c6	
    d95a:	5f 42 78 02 	mov.b	&0x0278,r15	
    d95e:	7f 90 03 00 	cmp.b	#3,	r15	;#0x0003
    d962:	80 24       	jz	$+258    	;abs 0xda64
    d964:	f2 d0 40 00 	bis.b	#64,	&0x0021	;#0x0040
    d968:	21 00 
    d96a:	0e 49       	mov	r9,	r14	
    d96c:	3f 40 c4 03 	mov	#964,	r15	;#0x03c4
    d970:	b0 12 4c c8 	call	#0xc84c	
    d974:	f2 f0 bf ff 	and.b	#-65,	&0x0021	;#0xffbf
    d978:	21 00 
    d97a:	5f 42 78 02 	mov.b	&0x0278,r15	
    d97e:	7f 90 03 00 	cmp.b	#3,	r15	;#0x0003
    d982:	70 24       	jz	$+226    	;abs 0xda64
    d984:	d2 d3 21 00 	bis.b	#1,	&0x0021	;r3 As==01
    d988:	d2 3f       	jmp	$-90     	;abs 0xd92e
    d98a:	5b 42 7e 02 	mov.b	&0x027e,r11	
    d98e:	0a 93       	tst	r10		
    d990:	32 20       	jnz	$+102    	;abs 0xd9f6
    d992:	d2 d3 21 00 	bis.b	#1,	&0x0021	;r3 As==01
    d996:	0f 4b       	mov	r11,	r15	
    d998:	0f 5f       	rla	r15		
    d99a:	1e 4f a6 e9 	mov	-5722(r15),r14	;0xe9a6(r15)
    d99e:	3f 40 c4 03 	mov	#964,	r15	;#0x03c4
    d9a2:	b0 12 4c c8 	call	#0xc84c	
    d9a6:	f2 f0 fe ff 	and.b	#-2,	&0x0021	;#0xfffe
    d9aa:	21 00 
    d9ac:	5f 42 78 02 	mov.b	&0x0278,r15	
    d9b0:	7f 90 03 00 	cmp.b	#3,	r15	;#0x0003
    d9b4:	57 24       	jz	$+176    	;abs 0xda64
    d9b6:	1a 53       	inc	r10		
    d9b8:	1a 92 08 02 	cmp	&0x0208,r10	
    d9bc:	53 2c       	jc	$+168    	;abs 0xda64
    d9be:	5f 42 0a 02 	mov.b	&0x020a,r15	
    d9c2:	0b 5f       	add	r15,	r11	
    d9c4:	3b 90 1e 00 	cmp	#30,	r11	;#0x001e
    d9c8:	4d 2c       	jc	$+156    	;abs 0xda64
    d9ca:	5f 42 78 02 	mov.b	&0x0278,r15	
    d9ce:	7f 90 03 00 	cmp.b	#3,	r15	;#0x0003
    d9d2:	48 24       	jz	$+146    	;abs 0xda64
    d9d4:	f2 d0 40 00 	bis.b	#64,	&0x0021	;#0x0040
    d9d8:	21 00 
    d9da:	0e 49       	mov	r9,	r14	
    d9dc:	3f 40 c4 03 	mov	#964,	r15	;#0x03c4
    d9e0:	b0 12 4c c8 	call	#0xc84c	
    d9e4:	f2 f0 bf ff 	and.b	#-65,	&0x0021	;#0xffbf
    d9e8:	21 00 
    d9ea:	5f 42 78 02 	mov.b	&0x0278,r15	
    d9ee:	7f 90 03 00 	cmp.b	#3,	r15	;#0x0003
    d9f2:	cf 23       	jnz	$-96     	;abs 0xd992
    d9f4:	37 3c       	jmp	$+112    	;abs 0xda64
    d9f6:	08 43       	clr	r8		
    d9f8:	d2 d3 21 00 	bis.b	#1,	&0x0021	;r3 As==01
    d9fc:	0f 4b       	mov	r11,	r15	
    d9fe:	0f 5f       	rla	r15		
    da00:	1e 4f a6 e9 	mov	-5722(r15),r14	;0xe9a6(r15)
    da04:	3f 40 c4 03 	mov	#964,	r15	;#0x03c4
    da08:	b0 12 4c c8 	call	#0xc84c	
    da0c:	f2 f0 fe ff 	and.b	#-2,	&0x0021	;#0xfffe
    da10:	21 00 
    da12:	5f 42 78 02 	mov.b	&0x0278,r15	
    da16:	7f 90 03 00 	cmp.b	#3,	r15	;#0x0003
    da1a:	24 24       	jz	$+74     	;abs 0xda64
    da1c:	18 53       	inc	r8		
    da1e:	18 92 08 02 	cmp	&0x0208,r8	
    da22:	20 2c       	jc	$+66     	;abs 0xda64
    da24:	5f 42 0a 02 	mov.b	&0x020a,r15	
    da28:	0b 5f       	add	r15,	r11	
    da2a:	3b 90 1e 00 	cmp	#30,	r11	;#0x001e
    da2e:	1a 2c       	jc	$+54     	;abs 0xda64
    da30:	0e 4a       	mov	r10,	r14	
    da32:	3f 40 c4 03 	mov	#964,	r15	;#0x03c4
    da36:	b0 12 4c c8 	call	#0xc84c	
    da3a:	5f 42 78 02 	mov.b	&0x0278,r15	
    da3e:	7f 90 03 00 	cmp.b	#3,	r15	;#0x0003
    da42:	10 24       	jz	$+34     	;abs 0xda64
    da44:	f2 d0 40 00 	bis.b	#64,	&0x0021	;#0x0040
    da48:	21 00 
    da4a:	0e 49       	mov	r9,	r14	
    da4c:	3f 40 c4 03 	mov	#964,	r15	;#0x03c4
    da50:	b0 12 4c c8 	call	#0xc84c	
    da54:	f2 f0 bf ff 	and.b	#-65,	&0x0021	;#0xffbf
    da58:	21 00 
    da5a:	5f 42 78 02 	mov.b	&0x0278,r15	
    da5e:	7f 90 03 00 	cmp.b	#3,	r15	;#0x0003
    da62:	ca 23       	jnz	$-106    	;abs 0xd9f8
    da64:	3f 40 c4 03 	mov	#964,	r15	;#0x03c4
    da68:	b0 12 48 d2 	call	#0xd248	
    da6c:	30 40 3e d7 	br	#0xd73e	

0000da70 <interval_enterSettings>:
    da70:	31 50 fa ff 	add	#-6,	r1	;#0xfffa
    da74:	5f 42 78 02 	mov.b	&0x0278,r15	
    da78:	4f 93       	tst.b	r15		
    da7a:	60 20       	jnz	$+194    	;abs 0xdb3c
    da7c:	3f 40 d5 e7 	mov	#-6187,	r15	;#0xe7d5
    da80:	b0 12 36 cc 	call	#0xcc36	
    da84:	3f 40 f6 e7 	mov	#-6154,	r15	;#0xe7f6
    da88:	b0 12 7c cc 	call	#0xcc7c	
    da8c:	3e 40 05 00 	mov	#5,	r14	;#0x0005
    da90:	0f 41       	mov	r1,	r15	
    da92:	b0 12 50 cf 	call	#0xcf50	
    da96:	0f 41       	mov	r1,	r15	
    da98:	b0 12 3a e6 	call	#0xe63a	
    da9c:	82 4f 02 02 	mov	r15,	&0x0202	
    daa0:	3f 40 11 e8 	mov	#-6127,	r15	;#0xe811
    daa4:	b0 12 7c cc 	call	#0xcc7c	
    daa8:	3e 40 05 00 	mov	#5,	r14	;#0x0005
    daac:	0f 41       	mov	r1,	r15	
    daae:	b0 12 50 cf 	call	#0xcf50	
    dab2:	0f 41       	mov	r1,	r15	
    dab4:	b0 12 3a e6 	call	#0xe63a	
    dab8:	82 4f 06 02 	mov	r15,	&0x0206	
    dabc:	0f 93       	tst	r15		
    dabe:	f0 27       	jz	$-30     	;abs 0xdaa0
    dac0:	3f 40 2c e8 	mov	#-6100,	r15	;#0xe82c
    dac4:	b0 12 7c cc 	call	#0xcc7c	
    dac8:	3e 40 05 00 	mov	#5,	r14	;#0x0005
    dacc:	0f 41       	mov	r1,	r15	
    dace:	b0 12 50 cf 	call	#0xcf50	
    dad2:	0f 41       	mov	r1,	r15	
    dad4:	b0 12 3a e6 	call	#0xe63a	
    dad8:	82 4f 04 02 	mov	r15,	&0x0204	
    dadc:	0f 93       	tst	r15		
    dade:	f0 27       	jz	$-30     	;abs 0xdac0
    dae0:	3f 40 47 e8 	mov	#-6073,	r15	;#0xe847
    dae4:	b0 12 7c cc 	call	#0xcc7c	
    dae8:	3e 40 05 00 	mov	#5,	r14	;#0x0005
    daec:	0f 41       	mov	r1,	r15	
    daee:	b0 12 50 cf 	call	#0xcf50	
    daf2:	0f 41       	mov	r1,	r15	
    daf4:	b0 12 3a e6 	call	#0xe63a	
    daf8:	82 4f 08 02 	mov	r15,	&0x0208	
    dafc:	0f 93       	tst	r15		
    dafe:	f0 27       	jz	$-30     	;abs 0xdae0
    db00:	3f 40 62 e8 	mov	#-6046,	r15	;#0xe862
    db04:	b0 12 7c cc 	call	#0xcc7c	
    db08:	3e 40 1e 00 	mov	#30,	r14	;#0x001e
    db0c:	3f 40 6a e9 	mov	#-5782,	r15	;#0xe96a
    db10:	b0 12 f2 cf 	call	#0xcff2	
    db14:	c2 4f 7e 02 	mov.b	r15,	&0x027e	
    db18:	3f 40 7d e8 	mov	#-6019,	r15	;#0xe87d
    db1c:	b0 12 7c cc 	call	#0xcc7c	
    db20:	3e 40 05 00 	mov	#5,	r14	;#0x0005
    db24:	3f 40 06 ea 	mov	#-5626,	r15	;#0xea06
    db28:	b0 12 f2 cf 	call	#0xcff2	
    db2c:	5f 53       	inc.b	r15		
    db2e:	c2 4f 0a 02 	mov.b	r15,	&0x020a	
    db32:	b0 12 0c cc 	call	#0xcc0c	
    db36:	31 50 06 00 	add	#6,	r1	;#0x0006
    db3a:	30 41       	ret			
    db3c:	3f 40 ba e7 	mov	#-6214,	r15	;#0xe7ba
    db40:	b0 12 36 cc 	call	#0xcc36	
    db44:	31 50 06 00 	add	#6,	r1	;#0x0006
    db48:	30 41       	ret			

0000db4a <interval_printSettings>:
    db4a:	3f 40 99 e8 	mov	#-5991,	r15	;#0xe899
    db4e:	b0 12 7c cc 	call	#0xcc7c	
    db52:	1f 42 02 02 	mov	&0x0202,r15	
    db56:	b0 12 fc cc 	call	#0xccfc	
    db5a:	3f 40 a5 e8 	mov	#-5979,	r15	;#0xe8a5
    db5e:	b0 12 7c cc 	call	#0xcc7c	
    db62:	1f 42 06 02 	mov	&0x0206,r15	
    db66:	b0 12 fc cc 	call	#0xccfc	
    db6a:	3f 40 b4 e8 	mov	#-5964,	r15	;#0xe8b4
    db6e:	b0 12 7c cc 	call	#0xcc7c	
    db72:	1f 42 04 02 	mov	&0x0204,r15	
    db76:	b0 12 fc cc 	call	#0xccfc	
    db7a:	3f 40 c3 e8 	mov	#-5949,	r15	;#0xe8c3
    db7e:	b0 12 7c cc 	call	#0xcc7c	
    db82:	1f 42 08 02 	mov	&0x0208,r15	
    db86:	b0 12 fc cc 	call	#0xccfc	
    db8a:	3f 40 d2 e8 	mov	#-5934,	r15	;#0xe8d2
    db8e:	b0 12 7c cc 	call	#0xcc7c	
    db92:	5f 42 7e 02 	mov.b	&0x027e,r15	
    db96:	0f 5f       	rla	r15		
    db98:	1f 4f 6a e9 	mov	-5782(r15),r15	;0xe96a(r15)
    db9c:	b0 12 7c cc 	call	#0xcc7c	
    dba0:	3f 40 e0 e8 	mov	#-5920,	r15	;#0xe8e0
    dba4:	b0 12 7c cc 	call	#0xcc7c	
    dba8:	5f 42 0a 02 	mov.b	&0x020a,r15	
    dbac:	3f 53       	add	#-1,	r15	;r3 As==11
    dbae:	0f 5f       	rla	r15		
    dbb0:	1f 4f 06 ea 	mov	-5626(r15),r15	;0xea06(r15)
    dbb4:	b0 12 7c cc 	call	#0xcc7c	
    dbb8:	b0 12 0c cc 	call	#0xcc0c	
    dbbc:	30 41       	ret			

0000dbbe <_clear_command>:
    dbbe:	3f 40 40 ea 	mov	#-5568,	r15	;#0xea40
    dbc2:	b0 12 36 cc 	call	#0xcc36	
    dbc6:	30 41       	ret			

0000dbc8 <_temp_command>:
    dbc8:	3f 40 0a 00 	mov	#10,	r15	;#0x000a
    dbcc:	b0 12 1c ca 	call	#0xca1c	
    dbd0:	3f 50 ea fe 	add	#-278,	r15	;#0xfeea
    dbd4:	b0 12 8e cd 	call	#0xcd8e	
    dbd8:	3f 40 45 ea 	mov	#-5563,	r15	;#0xea45
    dbdc:	b0 12 36 cc 	call	#0xcc36	
    dbe0:	30 41       	ret			

0000dbe2 <_switch_command>:
    dbe2:	3f 40 48 ea 	mov	#-5560,	r15	;#0xea48
    dbe6:	b0 12 7c cc 	call	#0xcc7c	
    dbea:	2e 43       	mov	#2,	r14	;r3 As==10
    dbec:	3f 40 26 ee 	mov	#-4570,	r15	;#0xee26
    dbf0:	b0 12 f2 cf 	call	#0xcff2	
    dbf4:	0f 5f       	rla	r15		
    dbf6:	1f 4f 2a ee 	mov	-4566(r15),r15	;0xee2a(r15)
    dbfa:	b0 12 64 e5 	call	#0xe564	
    dbfe:	30 41       	ret			

0000dc00 <_printAlarm_command>:
    dc00:	b0 12 24 e2 	call	#0xe224	
    dc04:	0f 93       	tst	r15		
    dc06:	06 24       	jz	$+14     	;abs 0xdc14
    dc08:	3f 90 94 d6 	cmp	#-10604,r15	;#0xd694
    dc0c:	0b 24       	jz	$+24     	;abs 0xdc24
    dc0e:	3f 90 c0 d6 	cmp	#-10560,r15	;#0xd6c0
    dc12:	01 24       	jz	$+4      	;abs 0xdc16
    dc14:	30 41       	ret			
    dc16:	1f 43       	mov	#1,	r15	;r3 As==01
    dc18:	0f 5f       	rla	r15		
    dc1a:	1f 4f 26 ee 	mov	-4570(r15),r15	;0xee26(r15)
    dc1e:	b0 12 36 cc 	call	#0xcc36	
    dc22:	30 41       	ret			
    dc24:	0f 43       	clr	r15		
    dc26:	f8 3f       	jmp	$-14     	;abs 0xdc18

0000dc28 <_alarm_command>:
    dc28:	3f 40 69 ea 	mov	#-5527,	r15	;#0xea69
    dc2c:	b0 12 7c cc 	call	#0xcc7c	
    dc30:	2e 43       	mov	#2,	r14	;r3 As==10
    dc32:	3f 40 26 ee 	mov	#-4570,	r15	;#0xee26
    dc36:	b0 12 f2 cf 	call	#0xcff2	
    dc3a:	0f 5f       	rla	r15		
    dc3c:	1f 4f 2a ee 	mov	-4566(r15),r15	;0xee2a(r15)
    dc40:	b0 12 00 e2 	call	#0xe200	
    dc44:	30 41       	ret			

0000dc46 <_help_command>:
    dc46:	7f 40 20 00 	mov.b	#32,	r15	;#0x0020
    dc4a:	b0 12 ee cb 	call	#0xcbee	
    dc4e:	3f 40 8a ea 	mov	#-5494,	r15	;#0xea8a
    dc52:	b0 12 7c cc 	call	#0xcc7c	
    dc56:	3f 40 8f ea 	mov	#-5489,	r15	;#0xea8f
    dc5a:	b0 12 7c cc 	call	#0xcc7c	
    dc5e:	3f 40 92 ea 	mov	#-5486,	r15	;#0xea92
    dc62:	b0 12 36 cc 	call	#0xcc36	
    dc66:	7f 40 20 00 	mov.b	#32,	r15	;#0x0020
    dc6a:	b0 12 ee cb 	call	#0xcbee	
    dc6e:	3f 40 a3 ea 	mov	#-5469,	r15	;#0xeaa3
    dc72:	b0 12 7c cc 	call	#0xcc7c	
    dc76:	3f 40 8f ea 	mov	#-5489,	r15	;#0xea8f
    dc7a:	b0 12 7c cc 	call	#0xcc7c	
    dc7e:	3f 40 a9 ea 	mov	#-5463,	r15	;#0xeaa9
    dc82:	b0 12 36 cc 	call	#0xcc36	
    dc86:	7f 40 20 00 	mov.b	#32,	r15	;#0x0020
    dc8a:	b0 12 ee cb 	call	#0xcbee	
    dc8e:	3f 40 b7 ea 	mov	#-5449,	r15	;#0xeab7
    dc92:	b0 12 7c cc 	call	#0xcc7c	
    dc96:	3f 40 8f ea 	mov	#-5489,	r15	;#0xea8f
    dc9a:	b0 12 7c cc 	call	#0xcc7c	
    dc9e:	3f 40 bd ea 	mov	#-5443,	r15	;#0xeabd
    dca2:	b0 12 36 cc 	call	#0xcc36	
    dca6:	7f 40 20 00 	mov.b	#32,	r15	;#0x0020
    dcaa:	b0 12 ee cb 	call	#0xcbee	
    dcae:	3f 40 cf ea 	mov	#-5425,	r15	;#0xeacf
    dcb2:	b0 12 7c cc 	call	#0xcc7c	
    dcb6:	3f 40 8f ea 	mov	#-5489,	r15	;#0xea8f
    dcba:	b0 12 7c cc 	call	#0xcc7c	
    dcbe:	3f 40 d8 ea 	mov	#-5416,	r15	;#0xead8
    dcc2:	b0 12 36 cc 	call	#0xcc36	
    dcc6:	7f 40 20 00 	mov.b	#32,	r15	;#0x0020
    dcca:	b0 12 ee cb 	call	#0xcbee	
    dcce:	3f 40 f2 ea 	mov	#-5390,	r15	;#0xeaf2
    dcd2:	b0 12 7c cc 	call	#0xcc7c	
    dcd6:	3f 40 8f ea 	mov	#-5489,	r15	;#0xea8f
    dcda:	b0 12 7c cc 	call	#0xcc7c	
    dcde:	3f 40 f7 ea 	mov	#-5385,	r15	;#0xeaf7
    dce2:	b0 12 36 cc 	call	#0xcc36	
    dce6:	7f 40 20 00 	mov.b	#32,	r15	;#0x0020
    dcea:	b0 12 ee cb 	call	#0xcbee	
    dcee:	3f 40 07 eb 	mov	#-5369,	r15	;#0xeb07
    dcf2:	b0 12 7c cc 	call	#0xcc7c	
    dcf6:	3f 40 8f ea 	mov	#-5489,	r15	;#0xea8f
    dcfa:	b0 12 7c cc 	call	#0xcc7c	
    dcfe:	3f 40 11 eb 	mov	#-5359,	r15	;#0xeb11
    dd02:	b0 12 36 cc 	call	#0xcc36	
    dd06:	7f 40 20 00 	mov.b	#32,	r15	;#0x0020
    dd0a:	b0 12 ee cb 	call	#0xcbee	
    dd0e:	3f 40 34 eb 	mov	#-5324,	r15	;#0xeb34
    dd12:	b0 12 7c cc 	call	#0xcc7c	
    dd16:	3f 40 8f ea 	mov	#-5489,	r15	;#0xea8f
    dd1a:	b0 12 7c cc 	call	#0xcc7c	
    dd1e:	3f 40 3e eb 	mov	#-5314,	r15	;#0xeb3e
    dd22:	b0 12 36 cc 	call	#0xcc36	
    dd26:	7f 40 20 00 	mov.b	#32,	r15	;#0x0020
    dd2a:	b0 12 ee cb 	call	#0xcbee	
    dd2e:	3f 40 58 eb 	mov	#-5288,	r15	;#0xeb58
    dd32:	b0 12 7c cc 	call	#0xcc7c	
    dd36:	3f 40 8f ea 	mov	#-5489,	r15	;#0xea8f
    dd3a:	b0 12 7c cc 	call	#0xcc7c	
    dd3e:	3f 40 5e eb 	mov	#-5282,	r15	;#0xeb5e
    dd42:	b0 12 36 cc 	call	#0xcc36	
    dd46:	7f 40 20 00 	mov.b	#32,	r15	;#0x0020
    dd4a:	b0 12 ee cb 	call	#0xcbee	
    dd4e:	3f 40 6f eb 	mov	#-5265,	r15	;#0xeb6f
    dd52:	b0 12 7c cc 	call	#0xcc7c	
    dd56:	3f 40 8f ea 	mov	#-5489,	r15	;#0xea8f
    dd5a:	b0 12 7c cc 	call	#0xcc7c	
    dd5e:	3f 40 79 eb 	mov	#-5255,	r15	;#0xeb79
    dd62:	b0 12 36 cc 	call	#0xcc36	
    dd66:	7f 40 20 00 	mov.b	#32,	r15	;#0x0020
    dd6a:	b0 12 ee cb 	call	#0xcbee	
    dd6e:	3f 40 8a eb 	mov	#-5238,	r15	;#0xeb8a
    dd72:	b0 12 7c cc 	call	#0xcc7c	
    dd76:	3f 40 8f ea 	mov	#-5489,	r15	;#0xea8f
    dd7a:	b0 12 7c cc 	call	#0xcc7c	
    dd7e:	3f 40 8e eb 	mov	#-5234,	r15	;#0xeb8e
    dd82:	b0 12 36 cc 	call	#0xcc36	
    dd86:	7f 40 20 00 	mov.b	#32,	r15	;#0x0020
    dd8a:	b0 12 ee cb 	call	#0xcbee	
    dd8e:	3f 40 ad eb 	mov	#-5203,	r15	;#0xebad
    dd92:	b0 12 7c cc 	call	#0xcc7c	
    dd96:	3f 40 8f ea 	mov	#-5489,	r15	;#0xea8f
    dd9a:	b0 12 7c cc 	call	#0xcc7c	
    dd9e:	3f 40 b1 eb 	mov	#-5199,	r15	;#0xebb1
    dda2:	b0 12 36 cc 	call	#0xcc36	
    dda6:	7f 40 20 00 	mov.b	#32,	r15	;#0x0020
    ddaa:	b0 12 ee cb 	call	#0xcbee	
    ddae:	3f 40 d0 eb 	mov	#-5168,	r15	;#0xebd0
    ddb2:	b0 12 7c cc 	call	#0xcc7c	
    ddb6:	3f 40 8f ea 	mov	#-5489,	r15	;#0xea8f
    ddba:	b0 12 7c cc 	call	#0xcc7c	
    ddbe:	3f 40 d4 eb 	mov	#-5164,	r15	;#0xebd4
    ddc2:	b0 12 36 cc 	call	#0xcc36	
    ddc6:	7f 40 20 00 	mov.b	#32,	r15	;#0x0020
    ddca:	b0 12 ee cb 	call	#0xcbee	
    ddce:	3f 40 f6 eb 	mov	#-5130,	r15	;#0xebf6
    ddd2:	b0 12 7c cc 	call	#0xcc7c	
    ddd6:	3f 40 8f ea 	mov	#-5489,	r15	;#0xea8f
    ddda:	b0 12 7c cc 	call	#0xcc7c	
    ddde:	3f 40 fa eb 	mov	#-5126,	r15	;#0xebfa
    dde2:	b0 12 36 cc 	call	#0xcc36	
    dde6:	7f 40 20 00 	mov.b	#32,	r15	;#0x0020
    ddea:	b0 12 ee cb 	call	#0xcbee	
    ddee:	3f 40 11 ec 	mov	#-5103,	r15	;#0xec11
    ddf2:	b0 12 7c cc 	call	#0xcc7c	
    ddf6:	3f 40 8f ea 	mov	#-5489,	r15	;#0xea8f
    ddfa:	b0 12 7c cc 	call	#0xcc7c	
    ddfe:	3f 40 16 ec 	mov	#-5098,	r15	;#0xec16
    de02:	b0 12 36 cc 	call	#0xcc36	
    de06:	7f 40 20 00 	mov.b	#32,	r15	;#0x0020
    de0a:	b0 12 ee cb 	call	#0xcbee	
    de0e:	3f 40 30 ec 	mov	#-5072,	r15	;#0xec30
    de12:	b0 12 7c cc 	call	#0xcc7c	
    de16:	3f 40 8f ea 	mov	#-5489,	r15	;#0xea8f
    de1a:	b0 12 7c cc 	call	#0xcc7c	
    de1e:	3f 40 37 ec 	mov	#-5065,	r15	;#0xec37
    de22:	b0 12 36 cc 	call	#0xcc36	
    de26:	7f 40 20 00 	mov.b	#32,	r15	;#0x0020
    de2a:	b0 12 ee cb 	call	#0xcbee	
    de2e:	3f 40 49 ec 	mov	#-5047,	r15	;#0xec49
    de32:	b0 12 7c cc 	call	#0xcc7c	
    de36:	3f 40 8f ea 	mov	#-5489,	r15	;#0xea8f
    de3a:	b0 12 7c cc 	call	#0xcc7c	
    de3e:	3f 40 50 ec 	mov	#-5040,	r15	;#0xec50
    de42:	b0 12 36 cc 	call	#0xcc36	
    de46:	7f 40 20 00 	mov.b	#32,	r15	;#0x0020
    de4a:	b0 12 ee cb 	call	#0xcbee	
    de4e:	3f 40 65 ec 	mov	#-5019,	r15	;#0xec65
    de52:	b0 12 7c cc 	call	#0xcc7c	
    de56:	3f 40 8f ea 	mov	#-5489,	r15	;#0xea8f
    de5a:	b0 12 7c cc 	call	#0xcc7c	
    de5e:	3f 40 6a ec 	mov	#-5014,	r15	;#0xec6a
    de62:	b0 12 36 cc 	call	#0xcc36	
    de66:	30 41       	ret			

0000de68 <prompt_task>:
    de68:	b0 12 5a c4 	call	#0xc45a	
    de6c:	3f 40 c0 03 	mov	#960,	r15	;#0x03c0
    de70:	b0 12 e4 d1 	call	#0xd1e4	
    de74:	1e 43       	mov	#1,	r14	;r3 As==01
    de76:	3f 40 c0 03 	mov	#960,	r15	;#0x03c0
    de7a:	b0 12 be c8 	call	#0xc8be	
    de7e:	3f 40 c0 03 	mov	#960,	r15	;#0x03c0
    de82:	b0 12 48 d2 	call	#0xd248	
    de86:	3f 40 40 ea 	mov	#-5568,	r15	;#0xea40
    de8a:	b0 12 36 cc 	call	#0xcc36	
    de8e:	3f 40 81 ec 	mov	#-4991,	r15	;#0xec81
    de92:	b0 12 36 cc 	call	#0xcc36	
    de96:	3f 40 91 ed 	mov	#-4719,	r15	;#0xed91
    de9a:	b0 12 7c cc 	call	#0xcc7c	
    de9e:	3e 40 0a 00 	mov	#10,	r14	;#0x000a
    dea2:	3f 40 9a 03 	mov	#922,	r15	;#0x039a
    dea6:	b0 12 ba ce 	call	#0xceba	
    deaa:	c2 93 9a 03 	tst.b	&0x039a	
    deae:	f3 27       	jz	$-24     	;abs 0xde96
    deb0:	3e 40 9a 03 	mov	#922,	r14	;#0x039a
    deb4:	3f 40 8a ea 	mov	#-5494,	r15	;#0xea8a
    deb8:	b0 12 1c e6 	call	#0xe61c	
    debc:	0f 93       	tst	r15		
    debe:	83 24       	jz	$+264    	;abs 0xdfc6
    dec0:	3e 40 9a 03 	mov	#922,	r14	;#0x039a
    dec4:	3f 40 a3 ea 	mov	#-5469,	r15	;#0xeaa3
    dec8:	b0 12 1c e6 	call	#0xe61c	
    decc:	0f 93       	tst	r15		
    dece:	7d 24       	jz	$+252    	;abs 0xdfca
    ded0:	3e 40 9a 03 	mov	#922,	r14	;#0x039a
    ded4:	3f 40 b7 ea 	mov	#-5449,	r15	;#0xeab7
    ded8:	b0 12 1c e6 	call	#0xe61c	
    dedc:	0f 93       	tst	r15		
    dede:	77 24       	jz	$+240    	;abs 0xdfce
    dee0:	3e 40 9a 03 	mov	#922,	r14	;#0x039a
    dee4:	3f 40 cf ea 	mov	#-5425,	r15	;#0xeacf
    dee8:	b0 12 1c e6 	call	#0xe61c	
    deec:	0f 93       	tst	r15		
    deee:	71 24       	jz	$+228    	;abs 0xdfd2
    def0:	3e 40 9a 03 	mov	#922,	r14	;#0x039a
    def4:	3f 40 f2 ea 	mov	#-5390,	r15	;#0xeaf2
    def8:	b0 12 1c e6 	call	#0xe61c	
    defc:	0f 93       	tst	r15		
    defe:	6c 24       	jz	$+218    	;abs 0xdfd8
    df00:	3e 40 9a 03 	mov	#922,	r14	;#0x039a
    df04:	3f 40 07 eb 	mov	#-5369,	r15	;#0xeb07
    df08:	b0 12 1c e6 	call	#0xe61c	
    df0c:	0f 93       	tst	r15		
    df0e:	66 24       	jz	$+206    	;abs 0xdfdc
    df10:	3e 40 9a 03 	mov	#922,	r14	;#0x039a
    df14:	3f 40 34 eb 	mov	#-5324,	r15	;#0xeb34
    df18:	b0 12 1c e6 	call	#0xe61c	
    df1c:	0f 93       	tst	r15		
    df1e:	61 24       	jz	$+196    	;abs 0xdfe2
    df20:	3e 40 9a 03 	mov	#922,	r14	;#0x039a
    df24:	3f 40 58 eb 	mov	#-5288,	r15	;#0xeb58
    df28:	b0 12 1c e6 	call	#0xe61c	
    df2c:	0f 93       	tst	r15		
    df2e:	5c 24       	jz	$+186    	;abs 0xdfe8
    df30:	3e 40 9a 03 	mov	#922,	r14	;#0x039a
    df34:	3f 40 6f eb 	mov	#-5265,	r15	;#0xeb6f
    df38:	b0 12 1c e6 	call	#0xe61c	
    df3c:	0f 93       	tst	r15		
    df3e:	57 24       	jz	$+176    	;abs 0xdfee
    df40:	3e 40 9a 03 	mov	#922,	r14	;#0x039a
    df44:	3f 40 8a eb 	mov	#-5238,	r15	;#0xeb8a
    df48:	b0 12 1c e6 	call	#0xe61c	
    df4c:	0f 93       	tst	r15		
    df4e:	51 24       	jz	$+164    	;abs 0xdff2
    df50:	3e 40 9a 03 	mov	#922,	r14	;#0x039a
    df54:	3f 40 ad eb 	mov	#-5203,	r15	;#0xebad
    df58:	b0 12 1c e6 	call	#0xe61c	
    df5c:	0f 93       	tst	r15		
    df5e:	4c 24       	jz	$+154    	;abs 0xdff8
    df60:	3e 40 9a 03 	mov	#922,	r14	;#0x039a
    df64:	3f 40 d0 eb 	mov	#-5168,	r15	;#0xebd0
    df68:	b0 12 1c e6 	call	#0xe61c	
    df6c:	0f 93       	tst	r15		
    df6e:	47 24       	jz	$+144    	;abs 0xdffe
    df70:	3e 40 9a 03 	mov	#922,	r14	;#0x039a
    df74:	3f 40 f6 eb 	mov	#-5130,	r15	;#0xebf6
    df78:	b0 12 1c e6 	call	#0xe61c	
    df7c:	0f 93       	tst	r15		
    df7e:	42 24       	jz	$+134    	;abs 0xe004
    df80:	3e 40 9a 03 	mov	#922,	r14	;#0x039a
    df84:	3f 40 11 ec 	mov	#-5103,	r15	;#0xec11
    df88:	b0 12 1c e6 	call	#0xe61c	
    df8c:	0f 93       	tst	r15		
    df8e:	3d 24       	jz	$+124    	;abs 0xe00a
    df90:	3e 40 9a 03 	mov	#922,	r14	;#0x039a
    df94:	3f 40 30 ec 	mov	#-5072,	r15	;#0xec30
    df98:	b0 12 1c e6 	call	#0xe61c	
    df9c:	0f 93       	tst	r15		
    df9e:	38 24       	jz	$+114    	;abs 0xe010
    dfa0:	3e 40 9a 03 	mov	#922,	r14	;#0x039a
    dfa4:	3f 40 49 ec 	mov	#-5047,	r15	;#0xec49
    dfa8:	b0 12 1c e6 	call	#0xe61c	
    dfac:	0f 93       	tst	r15		
    dfae:	33 24       	jz	$+104    	;abs 0xe016
    dfb0:	3e 40 9a 03 	mov	#922,	r14	;#0x039a
    dfb4:	3f 40 65 ec 	mov	#-5019,	r15	;#0xec65
    dfb8:	b0 12 1c e6 	call	#0xe61c	
    dfbc:	0f 93       	tst	r15		
    dfbe:	34 20       	jnz	$+106    	;abs 0xe028
    dfc0:	3e 40 10 00 	mov	#16,	r14	;#0x0010
    dfc4:	2a 3c       	jmp	$+86     	;abs 0xe01a
    dfc6:	0e 43       	clr	r14		
    dfc8:	28 3c       	jmp	$+82     	;abs 0xe01a
    dfca:	1e 43       	mov	#1,	r14	;r3 As==01
    dfcc:	26 3c       	jmp	$+78     	;abs 0xe01a
    dfce:	2e 43       	mov	#2,	r14	;r3 As==10
    dfd0:	24 3c       	jmp	$+74     	;abs 0xe01a
    dfd2:	3e 40 03 00 	mov	#3,	r14	;#0x0003
    dfd6:	21 3c       	jmp	$+68     	;abs 0xe01a
    dfd8:	2e 42       	mov	#4,	r14	;r2 As==10
    dfda:	1f 3c       	jmp	$+64     	;abs 0xe01a
    dfdc:	3e 40 05 00 	mov	#5,	r14	;#0x0005
    dfe0:	1c 3c       	jmp	$+58     	;abs 0xe01a
    dfe2:	3e 40 06 00 	mov	#6,	r14	;#0x0006
    dfe6:	19 3c       	jmp	$+52     	;abs 0xe01a
    dfe8:	3e 40 07 00 	mov	#7,	r14	;#0x0007
    dfec:	16 3c       	jmp	$+46     	;abs 0xe01a
    dfee:	3e 42       	mov	#8,	r14	;r2 As==11
    dff0:	14 3c       	jmp	$+42     	;abs 0xe01a
    dff2:	3e 40 09 00 	mov	#9,	r14	;#0x0009
    dff6:	11 3c       	jmp	$+36     	;abs 0xe01a
    dff8:	3e 40 0a 00 	mov	#10,	r14	;#0x000a
    dffc:	0e 3c       	jmp	$+30     	;abs 0xe01a
    dffe:	3e 40 0b 00 	mov	#11,	r14	;#0x000b
    e002:	0b 3c       	jmp	$+24     	;abs 0xe01a
    e004:	3e 40 0c 00 	mov	#12,	r14	;#0x000c
    e008:	08 3c       	jmp	$+18     	;abs 0xe01a
    e00a:	3e 40 0d 00 	mov	#13,	r14	;#0x000d
    e00e:	05 3c       	jmp	$+12     	;abs 0xe01a
    e010:	3e 40 0e 00 	mov	#14,	r14	;#0x000e
    e014:	02 3c       	jmp	$+6      	;abs 0xe01a
    e016:	3e 40 0f 00 	mov	#15,	r14	;#0x000f
    e01a:	0f 4e       	mov	r14,	r15	
    e01c:	0f 5f       	rla	r15		
    e01e:	0f 5e       	add	r14,	r15	
    e020:	0f 5f       	rla	r15		
    e022:	9f 12 b0 ed 	call	-4688(r15)	;0xedb0(r15)
    e026:	37 3f       	jmp	$-400    	;abs 0xde96
    e028:	3e 40 9a 03 	mov	#922,	r14	;#0x039a
    e02c:	3f 40 94 ed 	mov	#-4716,	r15	;#0xed94
    e030:	b0 12 1c e6 	call	#0xe61c	
    e034:	0f 93       	tst	r15		
    e036:	05 20       	jnz	$+12     	;abs 0xe042
    e038:	3f 40 81 ec 	mov	#-4991,	r15	;#0xec81
    e03c:	b0 12 36 cc 	call	#0xcc36	
    e040:	2a 3f       	jmp	$-426    	;abs 0xde96
    e042:	3f 40 9a ed 	mov	#-4710,	r15	;#0xed9a
    e046:	b0 12 36 cc 	call	#0xcc36	
    e04a:	25 3f       	jmp	$-436    	;abs 0xde96

0000e04c <_enter>:
    e04c:	0b 12       	push	r11		
    e04e:	31 50 fa ff 	add	#-6,	r1	;#0xfffa
    e052:	0b 4f       	mov	r15,	r11	
    e054:	3f 40 2e ee 	mov	#-4562,	r15	;#0xee2e
    e058:	b0 12 7c cc 	call	#0xcc7c	
    e05c:	3e 40 05 00 	mov	#5,	r14	;#0x0005
    e060:	0f 41       	mov	r1,	r15	
    e062:	b0 12 50 cf 	call	#0xcf50	
    e066:	0f 41       	mov	r1,	r15	
    e068:	b0 12 3a e6 	call	#0xe63a	
    e06c:	0e 4f       	mov	r15,	r14	
    e06e:	0f 4b       	mov	r11,	r15	
    e070:	b0 12 64 d3 	call	#0xd364	
    e074:	3f 40 3b ee 	mov	#-4549,	r15	;#0xee3b
    e078:	b0 12 7c cc 	call	#0xcc7c	
    e07c:	3e 40 03 00 	mov	#3,	r14	;#0x0003
    e080:	0f 41       	mov	r1,	r15	
    e082:	b0 12 50 cf 	call	#0xcf50	
    e086:	0f 41       	mov	r1,	r15	
    e088:	b0 12 3a e6 	call	#0xe63a	
    e08c:	cb 4f 04 00 	mov.b	r15,	4(r11)	;0x0004(r11)
    e090:	7f 53       	add.b	#-1,	r15	;r3 As==11
    e092:	7f 90 0c 00 	cmp.b	#12,	r15	;#0x000c
    e096:	ee 2f       	jc	$-34     	;abs 0xe074
    e098:	3f 40 48 ee 	mov	#-4536,	r15	;#0xee48
    e09c:	b0 12 7c cc 	call	#0xcc7c	
    e0a0:	3e 40 03 00 	mov	#3,	r14	;#0x0003
    e0a4:	0f 41       	mov	r1,	r15	
    e0a6:	b0 12 50 cf 	call	#0xcf50	
    e0aa:	0f 41       	mov	r1,	r15	
    e0ac:	b0 12 3a e6 	call	#0xe63a	
    e0b0:	cb 4f 03 00 	mov.b	r15,	3(r11)	;0x0003(r11)
    e0b4:	4f 93       	tst.b	r15		
    e0b6:	03 20       	jnz	$+8      	;abs 0xe0be
    e0b8:	0f 4b       	mov	r11,	r15	
    e0ba:	b0 12 18 d4 	call	#0xd418	
    e0be:	3f 40 55 ee 	mov	#-4523,	r15	;#0xee55
    e0c2:	b0 12 7c cc 	call	#0xcc7c	
    e0c6:	3e 40 03 00 	mov	#3,	r14	;#0x0003
    e0ca:	0f 41       	mov	r1,	r15	
    e0cc:	b0 12 50 cf 	call	#0xcf50	
    e0d0:	0f 41       	mov	r1,	r15	
    e0d2:	b0 12 3a e6 	call	#0xe63a	
    e0d6:	cb 4f 02 00 	mov.b	r15,	2(r11)	;0x0002(r11)
    e0da:	7f 90 17 00 	cmp.b	#23,	r15	;#0x0017
    e0de:	01 24       	jz	$+4      	;abs 0xe0e2
    e0e0:	ee 2f       	jc	$-34     	;abs 0xe0be
    e0e2:	3f 40 62 ee 	mov	#-4510,	r15	;#0xee62
    e0e6:	b0 12 7c cc 	call	#0xcc7c	
    e0ea:	3e 40 03 00 	mov	#3,	r14	;#0x0003
    e0ee:	0f 41       	mov	r1,	r15	
    e0f0:	b0 12 50 cf 	call	#0xcf50	
    e0f4:	0f 41       	mov	r1,	r15	
    e0f6:	b0 12 3a e6 	call	#0xe63a	
    e0fa:	cb 4f 01 00 	mov.b	r15,	1(r11)	;0x0001(r11)
    e0fe:	7f 90 3b 00 	cmp.b	#59,	r15	;#0x003b
    e102:	01 24       	jz	$+4      	;abs 0xe106
    e104:	ee 2f       	jc	$-34     	;abs 0xe0e2
    e106:	3f 40 6f ee 	mov	#-4497,	r15	;#0xee6f
    e10a:	b0 12 7c cc 	call	#0xcc7c	
    e10e:	3e 40 03 00 	mov	#3,	r14	;#0x0003
    e112:	0f 41       	mov	r1,	r15	
    e114:	b0 12 50 cf 	call	#0xcf50	
    e118:	0f 41       	mov	r1,	r15	
    e11a:	b0 12 3a e6 	call	#0xe63a	
    e11e:	cb 4f 00 00 	mov.b	r15,	0(r11)	;0x0000(r11)
    e122:	7f 90 3b 00 	cmp.b	#59,	r15	;#0x003b
    e126:	01 24       	jz	$+4      	;abs 0xe12a
    e128:	ee 2f       	jc	$-34     	;abs 0xe106
    e12a:	0f 4b       	mov	r11,	r15	
    e12c:	b0 12 b8 d2 	call	#0xd2b8	
    e130:	4f 93       	tst.b	r15		
    e132:	90 27       	jz	$-222    	;abs 0xe054
    e134:	31 50 06 00 	add	#6,	r1	;#0x0006
    e138:	3b 41       	pop	r11		
    e13a:	30 41       	ret			

0000e13c <_incHour>:
    e13c:	0b 12       	push	r11		
    e13e:	5f 42 b0 03 	mov.b	&0x03b0,r15	
    e142:	5f 53       	inc.b	r15		
    e144:	c2 4f b0 03 	mov.b	r15,	&0x03b0	
    e148:	7f 90 18 00 	cmp.b	#24,	r15	;#0x0018
    e14c:	2f 28       	jnc	$+96     	;abs 0xe1ac
    e14e:	c2 43 b0 03 	mov.b	#0,	&0x03b0	;r3 As==00
    e152:	5f 42 be 03 	mov.b	&0x03be,r15	
    e156:	5f 53       	inc.b	r15		
    e158:	c2 4f be 03 	mov.b	r15,	&0x03be	
    e15c:	7f 92       	cmp.b	#8,	r15	;r2 As==11
    e15e:	02 28       	jnc	$+6      	;abs 0xe164
    e160:	d2 43 be 03 	mov.b	#1,	&0x03be	;r3 As==01
    e164:	5b 42 b1 03 	mov.b	&0x03b1,r11	
    e168:	5b 53       	inc.b	r11		
    e16a:	c2 4b b1 03 	mov.b	r11,	&0x03b1	
    e16e:	3f 40 ae 03 	mov	#942,	r15	;#0x03ae
    e172:	b0 12 18 d4 	call	#0xd418	
    e176:	4e 4b       	mov.b	r11,	r14	
    e178:	0e 9f       	cmp	r15,	r14	
    e17a:	18 28       	jnc	$+50     	;abs 0xe1ac
    e17c:	d2 43 b1 03 	mov.b	#1,	&0x03b1	;r3 As==01
    e180:	5f 42 b2 03 	mov.b	&0x03b2,r15	
    e184:	5f 53       	inc.b	r15		
    e186:	c2 4f b2 03 	mov.b	r15,	&0x03b2	
    e18a:	7f 90 0d 00 	cmp.b	#13,	r15	;#0x000d
    e18e:	0e 28       	jnc	$+30     	;abs 0xe1ac
    e190:	d2 43 b2 03 	mov.b	#1,	&0x03b2	;r3 As==01
    e194:	5f 42 b3 03 	mov.b	&0x03b3,r15	
    e198:	5f 53       	inc.b	r15		
    e19a:	c2 4f b3 03 	mov.b	r15,	&0x03b3	
    e19e:	7f 90 64 00 	cmp.b	#100,	r15	;#0x0064
    e1a2:	04 28       	jnc	$+10     	;abs 0xe1ac
    e1a4:	c2 43 b3 03 	mov.b	#0,	&0x03b3	;r3 As==00
    e1a8:	d2 53 b4 03 	inc.b	&0x03b4	
    e1ac:	3b 41       	pop	r11		
    e1ae:	30 41       	ret			

0000e1b0 <rtcc_init>:
    e1b0:	c2 43 a4 03 	mov.b	#0,	&0x03a4	;r3 As==00
    e1b4:	3f 40 a8 03 	mov	#936,	r15	;#0x03a8
    e1b8:	b0 12 e4 c4 	call	#0xc4e4	
    e1bc:	3f 40 aa 03 	mov	#938,	r15	;#0x03aa
    e1c0:	b0 12 2e c6 	call	#0xc62e	
    e1c4:	3f 40 ae 03 	mov	#942,	r15	;#0x03ae
    e1c8:	b0 12 8e d2 	call	#0xd28e	
    e1cc:	3f 40 b6 03 	mov	#950,	r15	;#0x03b6
    e1d0:	b0 12 8e d2 	call	#0xd28e	
    e1d4:	3f 40 ae 03 	mov	#942,	r15	;#0x03ae
    e1d8:	b0 12 7e d4 	call	#0xd47e	
    e1dc:	c2 4f be 03 	mov.b	r15,	&0x03be	
    e1e0:	4e 4f       	mov.b	r15,	r14	
    e1e2:	3f 40 ae 03 	mov	#942,	r15	;#0x03ae
    e1e6:	b0 12 92 d5 	call	#0xd592	
    e1ea:	c2 4f bf 03 	mov.b	r15,	&0x03bf	
    e1ee:	82 43 a6 03 	mov	#0,	&0x03a6	;r3 As==00
    e1f2:	30 41       	ret			

0000e1f4 <rtcc_stop>:
    e1f4:	c2 43 a4 03 	mov.b	#0,	&0x03a4	;r3 As==00
    e1f8:	30 41       	ret			

0000e1fa <rtcc_alarmOff>:
    e1fa:	82 43 a6 03 	mov	#0,	&0x03a6	;r3 As==00
    e1fe:	30 41       	ret			

0000e200 <rtcc_enterAlarm>:
    e200:	0b 12       	push	r11		
    e202:	0b 4f       	mov	r15,	r11	
    e204:	3f 40 aa 03 	mov	#938,	r15	;#0x03aa
    e208:	b0 12 b4 c6 	call	#0xc6b4	
    e20c:	82 4b a6 03 	mov	r11,	&0x03a6	
    e210:	3f 40 b6 03 	mov	#950,	r15	;#0x03b6
    e214:	b0 12 4c e0 	call	#0xe04c	
    e218:	3f 40 aa 03 	mov	#938,	r15	;#0x03aa
    e21c:	b0 12 24 c7 	call	#0xc724	
    e220:	3b 41       	pop	r11		
    e222:	30 41       	ret			

0000e224 <rtcc_printAlarm>:
    e224:	0b 12       	push	r11		
    e226:	3f 40 aa 03 	mov	#938,	r15	;#0x03aa
    e22a:	b0 12 b4 c6 	call	#0xc6b4	
    e22e:	1f 42 a6 03 	mov	&0x03a6,r15	
    e232:	0f 93       	tst	r15		
    e234:	49 24       	jz	$+148    	;abs 0xe2c8
    e236:	5f 42 b8 03 	mov.b	&0x03b8,r15	
    e23a:	7f 90 0a 00 	cmp.b	#10,	r15	;#0x000a
    e23e:	4d 28       	jnc	$+156    	;abs 0xe2da
    e240:	b0 12 3a ce 	call	#0xce3a	
    e244:	7f 40 3a 00 	mov.b	#58,	r15	;#0x003a
    e248:	b0 12 ee cb 	call	#0xcbee	
    e24c:	5f 42 b7 03 	mov.b	&0x03b7,r15	
    e250:	7f 90 0a 00 	cmp.b	#10,	r15	;#0x000a
    e254:	4e 28       	jnc	$+158    	;abs 0xe2f2
    e256:	b0 12 3a ce 	call	#0xce3a	
    e25a:	7f 40 2e 00 	mov.b	#46,	r15	;#0x002e
    e25e:	b0 12 ee cb 	call	#0xcbee	
    e262:	5f 42 b6 03 	mov.b	&0x03b6,r15	
    e266:	7f 90 0a 00 	cmp.b	#10,	r15	;#0x000a
    e26a:	40 28       	jnc	$+130    	;abs 0xe2ec
    e26c:	b0 12 3a ce 	call	#0xce3a	
    e270:	7f 40 20 00 	mov.b	#32,	r15	;#0x0020
    e274:	b0 12 ee cb 	call	#0xcbee	
    e278:	5f 42 b9 03 	mov.b	&0x03b9,r15	
    e27c:	7f 90 0a 00 	cmp.b	#10,	r15	;#0x000a
    e280:	32 28       	jnc	$+102    	;abs 0xe2e6
    e282:	b0 12 3a ce 	call	#0xce3a	
    e286:	7f 40 20 00 	mov.b	#32,	r15	;#0x0020
    e28a:	b0 12 ee cb 	call	#0xcbee	
    e28e:	5f 42 ba 03 	mov.b	&0x03ba,r15	
    e292:	4e 4f       	mov.b	r15,	r14	
    e294:	7e 53       	add.b	#-1,	r14	;r3 As==11
    e296:	7e 90 0c 00 	cmp.b	#12,	r14	;#0x000c
    e29a:	22 2c       	jc	$+70     	;abs 0xe2e0
    e29c:	4f 4f       	mov.b	r15,	r15	
    e29e:	0f 5f       	rla	r15		
    e2a0:	1f 4f e8 ee 	mov	-4376(r15),r15	;0xeee8(r15)
    e2a4:	b0 12 7c cc 	call	#0xcc7c	
    e2a8:	7f 40 20 00 	mov.b	#32,	r15	;#0x0020
    e2ac:	b0 12 ee cb 	call	#0xcbee	
    e2b0:	3f 40 b6 03 	mov	#950,	r15	;#0x03b6
    e2b4:	b0 12 80 d3 	call	#0xd380	
    e2b8:	b0 12 fc cc 	call	#0xccfc	
    e2bc:	7f 40 2e 00 	mov.b	#46,	r15	;#0x002e
    e2c0:	b0 12 ee cb 	call	#0xcbee	
    e2c4:	b0 12 0c cc 	call	#0xcc0c	
    e2c8:	1b 42 a6 03 	mov	&0x03a6,r11	
    e2cc:	3f 40 aa 03 	mov	#938,	r15	;#0x03aa
    e2d0:	b0 12 24 c7 	call	#0xc724	
    e2d4:	0f 4b       	mov	r11,	r15	
    e2d6:	3b 41       	pop	r11		
    e2d8:	30 41       	ret			
    e2da:	b0 12 a6 cc 	call	#0xcca6	
    e2de:	b2 3f       	jmp	$-154    	;abs 0xe244
    e2e0:	3f 40 7c ee 	mov	#-4484,	r15	;#0xee7c
    e2e4:	df 3f       	jmp	$-64     	;abs 0xe2a4
    e2e6:	b0 12 a6 cc 	call	#0xcca6	
    e2ea:	cd 3f       	jmp	$-100    	;abs 0xe286
    e2ec:	b0 12 a6 cc 	call	#0xcca6	
    e2f0:	bf 3f       	jmp	$-128    	;abs 0xe270
    e2f2:	b0 12 a6 cc 	call	#0xcca6	
    e2f6:	b1 3f       	jmp	$-156    	;abs 0xe25a

0000e2f8 <rtcc_print>:
    e2f8:	3f 40 aa 03 	mov	#938,	r15	;#0x03aa
    e2fc:	b0 12 b4 c6 	call	#0xc6b4	
    e300:	5f 42 b0 03 	mov.b	&0x03b0,r15	
    e304:	7f 90 0a 00 	cmp.b	#10,	r15	;#0x000a
    e308:	5d 28       	jnc	$+188    	;abs 0xe3c4
    e30a:	b0 12 3a ce 	call	#0xce3a	
    e30e:	7f 40 3a 00 	mov.b	#58,	r15	;#0x003a
    e312:	b0 12 ee cb 	call	#0xcbee	
    e316:	5f 42 af 03 	mov.b	&0x03af,r15	
    e31a:	7f 90 0a 00 	cmp.b	#10,	r15	;#0x000a
    e31e:	5e 28       	jnc	$+190    	;abs 0xe3dc
    e320:	b0 12 3a ce 	call	#0xce3a	
    e324:	7f 40 2e 00 	mov.b	#46,	r15	;#0x002e
    e328:	b0 12 ee cb 	call	#0xcbee	
    e32c:	5f 42 ae 03 	mov.b	&0x03ae,r15	
    e330:	7f 90 0a 00 	cmp.b	#10,	r15	;#0x000a
    e334:	50 28       	jnc	$+162    	;abs 0xe3d6
    e336:	b0 12 3a ce 	call	#0xce3a	
    e33a:	7f 40 20 00 	mov.b	#32,	r15	;#0x0020
    e33e:	b0 12 ee cb 	call	#0xcbee	
    e342:	5f 42 be 03 	mov.b	&0x03be,r15	
    e346:	0f 5f       	rla	r15		
    e348:	1f 4f 3c ef 	mov	-4292(r15),r15	;0xef3c(r15)
    e34c:	b0 12 7c cc 	call	#0xcc7c	
    e350:	7f 40 20 00 	mov.b	#32,	r15	;#0x0020
    e354:	b0 12 ee cb 	call	#0xcbee	
    e358:	5f 42 b1 03 	mov.b	&0x03b1,r15	
    e35c:	7f 90 0a 00 	cmp.b	#10,	r15	;#0x000a
    e360:	37 28       	jnc	$+112    	;abs 0xe3d0
    e362:	b0 12 3a ce 	call	#0xce3a	
    e366:	7f 40 20 00 	mov.b	#32,	r15	;#0x0020
    e36a:	b0 12 ee cb 	call	#0xcbee	
    e36e:	5f 42 b2 03 	mov.b	&0x03b2,r15	
    e372:	4e 4f       	mov.b	r15,	r14	
    e374:	7e 53       	add.b	#-1,	r14	;r3 As==11
    e376:	7e 90 0c 00 	cmp.b	#12,	r14	;#0x000c
    e37a:	27 2c       	jc	$+80     	;abs 0xe3ca
    e37c:	4f 4f       	mov.b	r15,	r15	
    e37e:	0f 5f       	rla	r15		
    e380:	1f 4f e8 ee 	mov	-4376(r15),r15	;0xeee8(r15)
    e384:	b0 12 7c cc 	call	#0xcc7c	
    e388:	7f 40 20 00 	mov.b	#32,	r15	;#0x0020
    e38c:	b0 12 ee cb 	call	#0xcbee	
    e390:	3f 40 ae 03 	mov	#942,	r15	;#0x03ae
    e394:	b0 12 80 d3 	call	#0xd380	
    e398:	b0 12 fc cc 	call	#0xccfc	
    e39c:	3f 40 88 ee 	mov	#-4472,	r15	;#0xee88
    e3a0:	b0 12 7c cc 	call	#0xcc7c	
    e3a4:	5f 42 bf 03 	mov.b	&0x03bf,r15	
    e3a8:	0f 5f       	rla	r15		
    e3aa:	1f 4f 60 ef 	mov	-4256(r15),r15	;0xef60(r15)
    e3ae:	b0 12 7c cc 	call	#0xcc7c	
    e3b2:	3f 40 8b ee 	mov	#-4469,	r15	;#0xee8b
    e3b6:	b0 12 36 cc 	call	#0xcc36	
    e3ba:	3f 40 aa 03 	mov	#938,	r15	;#0x03aa
    e3be:	b0 12 24 c7 	call	#0xc724	
    e3c2:	30 41       	ret			
    e3c4:	b0 12 a6 cc 	call	#0xcca6	
    e3c8:	a2 3f       	jmp	$-186    	;abs 0xe30e
    e3ca:	3f 40 7c ee 	mov	#-4484,	r15	;#0xee7c
    e3ce:	da 3f       	jmp	$-74     	;abs 0xe384
    e3d0:	b0 12 a6 cc 	call	#0xcca6	
    e3d4:	c8 3f       	jmp	$-110    	;abs 0xe366
    e3d6:	b0 12 a6 cc 	call	#0xcca6	
    e3da:	af 3f       	jmp	$-160    	;abs 0xe33a
    e3dc:	b0 12 a6 cc 	call	#0xcca6	
    e3e0:	a1 3f       	jmp	$-188    	;abs 0xe324

0000e3e2 <rtcc_enterTime>:
    e3e2:	3f 40 aa 03 	mov	#938,	r15	;#0x03aa
    e3e6:	b0 12 b4 c6 	call	#0xc6b4	
    e3ea:	3f 40 ae 03 	mov	#942,	r15	;#0x03ae
    e3ee:	b0 12 4c e0 	call	#0xe04c	
    e3f2:	3f 40 ae 03 	mov	#942,	r15	;#0x03ae
    e3f6:	b0 12 7e d4 	call	#0xd47e	
    e3fa:	c2 4f be 03 	mov.b	r15,	&0x03be	
    e3fe:	4e 4f       	mov.b	r15,	r14	
    e400:	3f 40 ae 03 	mov	#942,	r15	;#0x03ae
    e404:	b0 12 92 d5 	call	#0xd592	
    e408:	c2 4f bf 03 	mov.b	r15,	&0x03bf	
    e40c:	3f 40 aa 03 	mov	#938,	r15	;#0x03aa
    e410:	b0 12 24 c7 	call	#0xc724	
    e414:	b0 12 f8 e2 	call	#0xe2f8	
    e418:	d2 43 a4 03 	mov.b	#1,	&0x03a4	;r3 As==01
    e41c:	3f 40 a8 03 	mov	#936,	r15	;#0x03a8
    e420:	b0 12 40 c5 	call	#0xc540	
    e424:	30 41       	ret			

0000e426 <rtcc_task>:
    e426:	b0 12 5a c4 	call	#0xc45a	
    e42a:	5f 42 a4 03 	mov.b	&0x03a4,r15	
    e42e:	4f 93       	tst.b	r15		
    e430:	08 20       	jnz	$+18     	;abs 0xe442
    e432:	3f 40 a8 03 	mov	#936,	r15	;#0x03a8
    e436:	b0 12 ea c4 	call	#0xc4ea	
    e43a:	5f 42 a4 03 	mov.b	&0x03a4,r15	
    e43e:	4f 93       	tst.b	r15		
    e440:	f8 27       	jz	$-14     	;abs 0xe432
    e442:	3f 40 c0 03 	mov	#960,	r15	;#0x03c0
    e446:	b0 12 e4 d1 	call	#0xd1e4	
    e44a:	2e 43       	mov	#2,	r14	;r3 As==10
    e44c:	3f 40 c0 03 	mov	#960,	r15	;#0x03c0
    e450:	b0 12 4c c8 	call	#0xc84c	
    e454:	5f 42 a4 03 	mov.b	&0x03a4,r15	
    e458:	4f 93       	tst.b	r15		
    e45a:	10 20       	jnz	$+34     	;abs 0xe47c
    e45c:	3f 40 c0 03 	mov	#960,	r15	;#0x03c0
    e460:	b0 12 48 d2 	call	#0xd248	
    e464:	3f 40 a8 03 	mov	#936,	r15	;#0x03a8
    e468:	b0 12 ea c4 	call	#0xc4ea	
    e46c:	3f 40 c0 03 	mov	#960,	r15	;#0x03c0
    e470:	b0 12 e4 d1 	call	#0xd1e4	
    e474:	5f 42 a4 03 	mov.b	&0x03a4,r15	
    e478:	4f 93       	tst.b	r15		
    e47a:	f0 27       	jz	$-30     	;abs 0xe45c
    e47c:	3f 40 aa 03 	mov	#938,	r15	;#0x03aa
    e480:	b0 12 b4 c6 	call	#0xc6b4	
    e484:	5f 42 ae 03 	mov.b	&0x03ae,r15	
    e488:	5f 53       	inc.b	r15		
    e48a:	c2 4f ae 03 	mov.b	r15,	&0x03ae	
    e48e:	7f 90 3c 00 	cmp.b	#60,	r15	;#0x003c
    e492:	52 28       	jnc	$+166    	;abs 0xe538
    e494:	c2 43 ae 03 	mov.b	#0,	&0x03ae	;r3 As==00
    e498:	5f 42 af 03 	mov.b	&0x03af,r15	
    e49c:	5f 53       	inc.b	r15		
    e49e:	c2 4f af 03 	mov.b	r15,	&0x03af	
    e4a2:	7f 90 3c 00 	cmp.b	#60,	r15	;#0x003c
    e4a6:	48 28       	jnc	$+146    	;abs 0xe538
    e4a8:	c2 43 af 03 	mov.b	#0,	&0x03af	;r3 As==00
    e4ac:	b0 12 3c e1 	call	#0xe13c	
    e4b0:	5e 42 bf 03 	mov.b	&0x03bf,r14	
    e4b4:	3f 40 ae 03 	mov	#942,	r15	;#0x03ae
    e4b8:	b0 12 92 d5 	call	#0xd592	
    e4bc:	5f 92 bf 03 	cmp.b	&0x03bf,r15	
    e4c0:	3b 24       	jz	$+120    	;abs 0xe538
    e4c2:	c2 4f bf 03 	mov.b	r15,	&0x03bf	
    e4c6:	5f 93       	cmp.b	#1,	r15	;r3 As==01
    e4c8:	03 24       	jz	$+8      	;abs 0xe4d0
    e4ca:	6f 93       	cmp.b	#2,	r15	;r3 As==10
    e4cc:	35 20       	jnz	$+108    	;abs 0xe538
    e4ce:	32 3c       	jmp	$+102    	;abs 0xe534
    e4d0:	5f 42 b0 03 	mov.b	&0x03b0,r15	
    e4d4:	4f 93       	tst.b	r15		
    e4d6:	04 24       	jz	$+10     	;abs 0xe4e0
    e4d8:	7f 53       	add.b	#-1,	r15	;r3 As==11
    e4da:	c2 4f b0 03 	mov.b	r15,	&0x03b0	
    e4de:	2c 3c       	jmp	$+90     	;abs 0xe538
    e4e0:	f2 40 17 00 	mov.b	#23,	&0x03b0	;#0x0017
    e4e4:	b0 03 
    e4e6:	5f 42 be 03 	mov.b	&0x03be,r15	
    e4ea:	7f 53       	add.b	#-1,	r15	;r3 As==11
    e4ec:	c2 4f be 03 	mov.b	r15,	&0x03be	
    e4f0:	03 20       	jnz	$+8      	;abs 0xe4f8
    e4f2:	f2 40 07 00 	mov.b	#7,	&0x03be	;#0x0007
    e4f6:	be 03 
    e4f8:	5f 42 b1 03 	mov.b	&0x03b1,r15	
    e4fc:	7f 53       	add.b	#-1,	r15	;r3 As==11
    e4fe:	c2 4f b1 03 	mov.b	r15,	&0x03b1	
    e502:	1a 20       	jnz	$+54     	;abs 0xe538
    e504:	5f 42 b2 03 	mov.b	&0x03b2,r15	
    e508:	7f 53       	add.b	#-1,	r15	;r3 As==11
    e50a:	c2 4f b2 03 	mov.b	r15,	&0x03b2	
    e50e:	0b 20       	jnz	$+24     	;abs 0xe526
    e510:	f2 40 0c 00 	mov.b	#12,	&0x03b2	;#0x000c
    e514:	b2 03 
    e516:	c2 93 b3 03 	tst.b	&0x03b3	
    e51a:	05 20       	jnz	$+12     	;abs 0xe526
    e51c:	f2 40 63 00 	mov.b	#99,	&0x03b3	;#0x0063
    e520:	b3 03 
    e522:	f2 53 b4 03 	add.b	#-1,	&0x03b4	;r3 As==11
    e526:	3f 40 ae 03 	mov	#942,	r15	;#0x03ae
    e52a:	b0 12 18 d4 	call	#0xd418	
    e52e:	c2 4f b1 03 	mov.b	r15,	&0x03b1	
    e532:	02 3c       	jmp	$+6      	;abs 0xe538
    e534:	b0 12 3c e1 	call	#0xe13c	
    e538:	1f 42 a6 03 	mov	&0x03a6,r15	
    e53c:	0f 93       	tst	r15		
    e53e:	0d 24       	jz	$+28     	;abs 0xe55a
    e540:	3e 40 b6 03 	mov	#950,	r14	;#0x03b6
    e544:	3f 40 ae 03 	mov	#942,	r15	;#0x03ae
    e548:	b0 12 a4 d3 	call	#0xd3a4	
    e54c:	4f 93       	tst.b	r15		
    e54e:	05 24       	jz	$+12     	;abs 0xe55a
    e550:	1f 42 a6 03 	mov	&0x03a6,r15	
    e554:	8f 12       	call	r15		
    e556:	82 43 a6 03 	mov	#0,	&0x03a6	;r3 As==00
    e55a:	3f 40 aa 03 	mov	#938,	r15	;#0x03aa
    e55e:	b0 12 24 c7 	call	#0xc724	
    e562:	73 3f       	jmp	$-280    	;abs 0xe44a

0000e564 <switch_setFunc>:
    e564:	82 4f 0c 02 	mov	r15,	&0x020c	
    e568:	30 41       	ret			

0000e56a <switch_task>:
    e56a:	b0 12 ba ca 	call	#0xcaba	
    e56e:	b0 12 68 d6 	call	#0xd668	
    e572:	4f 93       	tst.b	r15		
    e574:	03 24       	jz	$+8      	;abs 0xe57c
    e576:	b0 12 ec d6 	call	#0xd6ec	
    e57a:	03 3c       	jmp	$+8      	;abs 0xe582
    e57c:	1f 42 0c 02 	mov	&0x020c,r15	
    e580:	8f 12       	call	r15		
    e582:	b0 12 da ca 	call	#0xcada	
    e586:	3f 40 c4 03 	mov	#964,	r15	;#0x03c4
    e58a:	b0 12 e4 d1 	call	#0xd1e4	
    e58e:	2e 43       	mov	#2,	r14	;r3 As==10
    e590:	3f 40 c4 03 	mov	#964,	r15	;#0x03c4
    e594:	b0 12 be c8 	call	#0xc8be	
    e598:	3f 40 c4 03 	mov	#964,	r15	;#0x03c4
    e59c:	b0 12 48 d2 	call	#0xd248	
    e5a0:	e4 3f       	jmp	$-54     	;abs 0xe56a

0000e5a2 <__mulhi3>:
    e5a2:	0d 4f       	mov	r15,	r13	
    e5a4:	0f 43       	clr	r15		
    e5a6:	0e 93       	tst	r14		
    e5a8:	07 24       	jz	$+16     	;abs 0xe5b8
    e5aa:	12 c3       	clrc			
    e5ac:	0d 10       	rrc	r13		
    e5ae:	01 28       	jnc	$+4      	;abs 0xe5b2
    e5b0:	0f 5e       	add	r14,	r15	
    e5b2:	0e 5e       	rla	r14		
    e5b4:	0d 93       	tst	r13		
    e5b6:	f7 23       	jnz	$-16     	;abs 0xe5a6
    e5b8:	30 41       	ret			

0000e5ba <__udivhi3>:
    e5ba:	7c 40 10 00 	mov.b	#16,	r12	;#0x0010
    e5be:	0d 4e       	mov	r14,	r13	
    e5c0:	0e 43       	clr	r14		
    e5c2:	0f 5f       	rla	r15		
    e5c4:	0e 6e       	rlc	r14		
    e5c6:	0e 9d       	cmp	r13,	r14	
    e5c8:	02 28       	jnc	$+6      	;abs 0xe5ce
    e5ca:	0e 8d       	sub	r13,	r14	
    e5cc:	1f d3       	bis	#1,	r15	;r3 As==01
    e5ce:	1c 83       	dec	r12		
    e5d0:	f8 23       	jnz	$-14     	;abs 0xe5c2
    e5d2:	30 41       	ret			

0000e5d4 <__umodhi3>:
    e5d4:	b0 12 ba e5 	call	#0xe5ba	
    e5d8:	0f 4e       	mov	r14,	r15	
    e5da:	30 41       	ret			

0000e5dc <__udivsi3>:
    e5dc:	0b 12       	push	r11		
    e5de:	0a 12       	push	r10		
    e5e0:	09 12       	push	r9		
    e5e2:	79 40 20 00 	mov.b	#32,	r9	;#0x0020
    e5e6:	0a 4c       	mov	r12,	r10	
    e5e8:	0b 4d       	mov	r13,	r11	
    e5ea:	0c 43       	clr	r12		
    e5ec:	0d 43       	clr	r13		
    e5ee:	0e 5e       	rla	r14		
    e5f0:	0f 6f       	rlc	r15		
    e5f2:	0c 6c       	rlc	r12		
    e5f4:	0d 6d       	rlc	r13		
    e5f6:	0d 9b       	cmp	r11,	r13	
    e5f8:	06 28       	jnc	$+14     	;abs 0xe606
    e5fa:	02 20       	jnz	$+6      	;abs 0xe600
    e5fc:	0c 9a       	cmp	r10,	r12	
    e5fe:	03 28       	jnc	$+8      	;abs 0xe606
    e600:	0c 8a       	sub	r10,	r12	
    e602:	0d 7b       	subc	r11,	r13	
    e604:	1e d3       	bis	#1,	r14	;r3 As==01
    e606:	19 83       	dec	r9		
    e608:	f2 23       	jnz	$-26     	;abs 0xe5ee
    e60a:	39 41       	pop	r9		
    e60c:	3a 41       	pop	r10		
    e60e:	3b 41       	pop	r11		
    e610:	30 41       	ret			

0000e612 <__umodsi3>:
    e612:	b0 12 dc e5 	call	#0xe5dc	
    e616:	0e 4c       	mov	r12,	r14	
    e618:	0f 4d       	mov	r13,	r15	
    e61a:	30 41       	ret			

0000e61c <strcmp>:
    e61c:	03 3c       	jmp	$+8      	;abs 0xe624
    e61e:	1f 53       	inc	r15		
    e620:	4d 93       	tst.b	r13		
    e622:	09 24       	jz	$+20     	;abs 0xe636
    e624:	6d 4f       	mov.b	@r15,	r13	
    e626:	7c 4e       	mov.b	@r14+,	r12	
    e628:	4d 9c       	cmp.b	r12,	r13	
    e62a:	f9 27       	jz	$-12     	;abs 0xe61e
    e62c:	4f 4d       	mov.b	r13,	r15	
    e62e:	5e 4e ff ff 	mov.b	-1(r14),r14	;0xffff(r14)
    e632:	0f 8e       	sub	r14,	r15	
    e634:	30 41       	ret			
    e636:	0f 43       	clr	r15		
    e638:	30 41       	ret			

0000e63a <atoi>:
    e63a:	0b 12       	push	r11		
    e63c:	0e 4f       	mov	r15,	r14	
    e63e:	01 3c       	jmp	$+4      	;abs 0xe642
    e640:	1e 53       	inc	r14		
    e642:	6f 4e       	mov.b	@r14,	r15	
    e644:	7f 90 20 00 	cmp.b	#32,	r15	;#0x0020
    e648:	fb 27       	jz	$-8      	;abs 0xe640
    e64a:	7f 90 09 00 	cmp.b	#9,	r15	;#0x0009
    e64e:	f8 27       	jz	$-14     	;abs 0xe640
    e650:	7f 90 0a 00 	cmp.b	#10,	r15	;#0x000a
    e654:	f5 27       	jz	$-20     	;abs 0xe640
    e656:	7f 90 0c 00 	cmp.b	#12,	r15	;#0x000c
    e65a:	f2 27       	jz	$-26     	;abs 0xe640
    e65c:	7f 90 0d 00 	cmp.b	#13,	r15	;#0x000d
    e660:	ef 27       	jz	$-32     	;abs 0xe640
    e662:	7f 90 0b 00 	cmp.b	#11,	r15	;#0x000b
    e666:	ec 27       	jz	$-38     	;abs 0xe640
    e668:	7f 90 2d 00 	cmp.b	#45,	r15	;#0x002d
    e66c:	03 20       	jnz	$+8      	;abs 0xe674
    e66e:	1e 53       	inc	r14		
    e670:	1b 43       	mov	#1,	r11	;r3 As==01
    e672:	05 3c       	jmp	$+12     	;abs 0xe67e
    e674:	7f 90 2b 00 	cmp.b	#43,	r15	;#0x002b
    e678:	01 20       	jnz	$+4      	;abs 0xe67c
    e67a:	1e 53       	inc	r14		
    e67c:	0b 43       	clr	r11		
    e67e:	6f 4e       	mov.b	@r14,	r15	
    e680:	8f 11       	sxt	r15		
    e682:	3f 50 d0 ff 	add	#-48,	r15	;#0xffd0
    e686:	3f 90 0a 00 	cmp	#10,	r15	;#0x000a
    e68a:	19 2c       	jc	$+52     	;abs 0xe6be
    e68c:	0d 43       	clr	r13		
    e68e:	7c 4e       	mov.b	@r14+,	r12	
    e690:	8c 11       	sxt	r12		
    e692:	0f 4c       	mov	r12,	r15	
    e694:	3f 50 d0 ff 	add	#-48,	r15	;#0xffd0
    e698:	0f 5d       	add	r13,	r15	
    e69a:	6d 4e       	mov.b	@r14,	r13	
    e69c:	8d 11       	sxt	r13		
    e69e:	3d 50 d0 ff 	add	#-48,	r13	;#0xffd0
    e6a2:	3d 90 0a 00 	cmp	#10,	r13	;#0x000a
    e6a6:	06 2c       	jc	$+14     	;abs 0xe6b4
    e6a8:	0f 5f       	rla	r15		
    e6aa:	0d 4f       	mov	r15,	r13	
    e6ac:	0d 5d       	rla	r13		
    e6ae:	0d 5d       	rla	r13		
    e6b0:	0d 5f       	add	r15,	r13	
    e6b2:	ed 3f       	jmp	$-36     	;abs 0xe68e
    e6b4:	0b 93       	tst	r11		
    e6b6:	04 24       	jz	$+10     	;abs 0xe6c0
    e6b8:	3f e3       	inv	r15		
    e6ba:	1f 53       	inc	r15		
    e6bc:	01 3c       	jmp	$+4      	;abs 0xe6c0
    e6be:	0f 43       	clr	r15		
    e6c0:	3b 41       	pop	r11		
    e6c2:	30 41       	ret			

0000e6c4 <div>:
    e6c4:	b0 12 1c e7 	call	#0xe71c	
    e6c8:	0d 4e       	mov	r14,	r13	
    e6ca:	0e 4f       	mov	r15,	r14	
    e6cc:	0f 4d       	mov	r13,	r15	
    e6ce:	30 41       	ret			

0000e6d0 <setjmp>:
    e6d0:	bf 41 14 00 	pop	20(r15)	;0x0014(r15)
    e6d4:	8f 41 00 00 	mov	r1,	0(r15)	;0x0000(r15)
    e6d8:	8f 42 02 00 	mov	r2,	2(r15)	;0x0002(r15)
    e6dc:	8f 44 04 00 	mov	r4,	4(r15)	;0x0004(r15)
    e6e0:	8f 45 06 00 	mov	r5,	6(r15)	;0x0006(r15)
    e6e4:	8f 46 08 00 	mov	r6,	8(r15)	;0x0008(r15)
    e6e8:	8f 47 0a 00 	mov	r7,	10(r15)	;0x000a(r15)
    e6ec:	8f 48 0c 00 	mov	r8,	12(r15)	;0x000c(r15)
    e6f0:	8f 49 0e 00 	mov	r9,	14(r15)	;0x000e(r15)
    e6f4:	8f 4a 10 00 	mov	r10,	16(r15)	;0x0010(r15)
    e6f8:	8f 4b 12 00 	mov	r11,	18(r15)	;0x0012(r15)
    e6fc:	0f 43       	clr	r15		
    e6fe:	10 41 fe ff 	br	-2(r1)		;0xfffe(r1)

0000e702 <longjmp>:
    e702:	0d 4f       	mov	r15,	r13	
    e704:	0f 4e       	mov	r14,	r15	
    e706:	31 4d       	mov	@r13+,	r1	
    e708:	32 4d       	mov	@r13+,	r2	
    e70a:	34 4d       	mov	@r13+,	r4	
    e70c:	35 4d       	mov	@r13+,	r5	
    e70e:	36 4d       	mov	@r13+,	r6	
    e710:	37 4d       	mov	@r13+,	r7	
    e712:	38 4d       	mov	@r13+,	r8	
    e714:	39 4d       	mov	@r13+,	r9	
    e716:	3a 4d       	mov	@r13+,	r10	
    e718:	3b 4d       	mov	@r13+,	r11	
    e71a:	20 4d       	br	@r13		

0000e71c <__divhi3>:
    e71c:	0d 43       	clr	r13		
    e71e:	0f 93       	tst	r15		
    e720:	04 34       	jge	$+10     	;abs 0xe72a
    e722:	3d 40 03 00 	mov	#3,	r13	;#0x0003
    e726:	3f e3       	inv	r15		
    e728:	1f 53       	inc	r15		
    e72a:	0e 93       	tst	r14		
    e72c:	03 34       	jge	$+8      	;abs 0xe734
    e72e:	5d e3       	xor.b	#1,	r13	;r3 As==01
    e730:	3e e3       	inv	r14		
    e732:	1e 53       	inc	r14		
    e734:	0d 12       	push	r13		
    e736:	b0 12 ba e5 	call	#0xe5ba	
    e73a:	3d 41       	pop	r13		
    e73c:	6d b3       	bit.b	#2,	r13	;r3 As==10
    e73e:	02 24       	jz	$+6      	;abs 0xe744
    e740:	3e e3       	inv	r14		
    e742:	1e 53       	inc	r14		
    e744:	5d b3       	bit.b	#1,	r13	;r3 As==01
    e746:	02 24       	jz	$+6      	;abs 0xe74c
    e748:	3f e3       	inv	r15		
    e74a:	1f 53       	inc	r15		
    e74c:	30 41       	ret			

0000e74e <__modhi3>:
    e74e:	b0 12 1c e7 	call	#0xe71c	
    e752:	0f 4e       	mov	r14,	r15	
    e754:	30 41       	ret			

0000e756 <_unexpected_>:
    e756:	00 13       	reti			

Disassembly of section .vectors:

0000ffe0 <__ivtbl_16>:
    ffe0:	94 c0 94 c0 fc ca 94 c0 94 c0 5e ca 72 cb c8 cb     ..........^.r...
    fff0:	94 c0 62 d1 94 c0 94 c0 94 c0 84 d1 94 c0 00 c0     ..b.............
